
OBJ/place.o:     file format elf64-x86-64


Disassembly of section .text:

0000000000000000 <try_place>:
       0:	55                   	push   %rbp
       1:	48 89 e5             	mov    %rsp,%rbp
       4:	41 57                	push   %r15
       6:	41 56                	push   %r14
       8:	41 55                	push   %r13
       a:	41 54                	push   %r12
       c:	53                   	push   %rbx
       d:	48 81 ec 68 02 00 00 	sub    $0x268,%rsp
      14:	48 89 bd a8 fd ff ff 	mov    %rdi,-0x258(%rbp)
      1b:	66 0f 7e c0          	movd   %xmm0,%eax
      1f:	48 89 95 90 fd ff ff 	mov    %rdx,-0x270(%rbp)
      26:	48 89 8d 88 fd ff ff 	mov    %rcx,-0x278(%rbp)
      2d:	48 89 b5 98 fd ff ff 	mov    %rsi,-0x268(%rbp)
      34:	89 85 a0 fd ff ff    	mov    %eax,-0x260(%rbp)
      3a:	8b 05 00 00 00 00    	mov    0x0(%rip),%eax        # 40 <try_place+0x40>
      40:	48 98                	cltq   
      42:	48 c1 e0 02          	shl    $0x2,%rax
      46:	48 89 c7             	mov    %rax,%rdi
      49:	e8 00 00 00 00       	callq  4e <try_place+0x4e>
      4e:	48 89 85 50 ff ff ff 	mov    %rax,-0xb0(%rbp)
      55:	48 c7 85 58 ff ff ff 	movq   $0x0,-0xa8(%rbp)
      5c:	00 00 00 00 
      60:	8b 45 10             	mov    0x10(%rbp),%eax
      63:	83 f8 01             	cmp    $0x1,%eax
      66:	74 13                	je     7b <try_place+0x7b>
      68:	8b 45 10             	mov    0x10(%rbp),%eax
      6b:	83 f8 02             	cmp    $0x2,%eax
      6e:	74 0b                	je     7b <try_place+0x7b>
      70:	8b 45 44             	mov    0x44(%rbp),%eax
      73:	85 c0                	test   %eax,%eax
      75:	0f 84 e9 00 00 00    	je     164 <try_place+0x164>
      7b:	48 83 ec 08          	sub    $0x8,%rsp
      7f:	48 8d 8d b8 fd ff ff 	lea    -0x248(%rbp),%rcx
      86:	48 8d 95 b0 fd ff ff 	lea    -0x250(%rbp),%rdx
      8d:	48 8b b5 98 fd ff ff 	mov    -0x268(%rbp),%rsi
      94:	44 8b 85 a0 fd ff ff 	mov    -0x260(%rbp),%r8d
      9b:	48 8b bd a8 fd ff ff 	mov    -0x258(%rbp),%rdi
      a2:	48 8b 85 90 fd ff ff 	mov    -0x270(%rbp),%rax
      a9:	ff 70 10             	pushq  0x10(%rax)
      ac:	ff 70 08             	pushq  0x8(%rax)
      af:	ff 30                	pushq  (%rax)
      b1:	ff b5 f8 00 00 00    	pushq  0xf8(%rbp)
      b7:	ff b5 f0 00 00 00    	pushq  0xf0(%rbp)
      bd:	ff b5 e8 00 00 00    	pushq  0xe8(%rbp)
      c3:	ff b5 e0 00 00 00    	pushq  0xe0(%rbp)
      c9:	ff b5 d8 00 00 00    	pushq  0xd8(%rbp)
      cf:	ff b5 d0 00 00 00    	pushq  0xd0(%rbp)
      d5:	ff b5 c8 00 00 00    	pushq  0xc8(%rbp)
      db:	ff b5 c0 00 00 00    	pushq  0xc0(%rbp)
      e1:	ff b5 b8 00 00 00    	pushq  0xb8(%rbp)
      e7:	ff b5 b0 00 00 00    	pushq  0xb0(%rbp)
      ed:	ff b5 a8 00 00 00    	pushq  0xa8(%rbp)
      f3:	ff b5 a0 00 00 00    	pushq  0xa0(%rbp)
      f9:	48 83 ec 30          	sub    $0x30,%rsp
      fd:	48 89 e0             	mov    %rsp,%rax
     100:	4c 8b 4d 70          	mov    0x70(%rbp),%r9
     104:	4c 89 08             	mov    %r9,(%rax)
     107:	4c 8b 4d 78          	mov    0x78(%rbp),%r9
     10b:	4c 89 48 08          	mov    %r9,0x8(%rax)
     10f:	4c 8b 8d 80 00 00 00 	mov    0x80(%rbp),%r9
     116:	4c 89 48 10          	mov    %r9,0x10(%rax)
     11a:	4c 8b 8d 88 00 00 00 	mov    0x88(%rbp),%r9
     121:	4c 89 48 18          	mov    %r9,0x18(%rax)
     125:	4c 8b 8d 90 00 00 00 	mov    0x90(%rbp),%r9
     12c:	4c 89 48 20          	mov    %r9,0x20(%rax)
     130:	44 8b 8d 98 00 00 00 	mov    0x98(%rbp),%r9d
     137:	44 89 48 28          	mov    %r9d,0x28(%rax)
     13b:	44 89 85 80 fd ff ff 	mov    %r8d,-0x280(%rbp)
     142:	f3 0f 10 85 80 fd ff 	movss  -0x280(%rbp),%xmm0
     149:	ff 
     14a:	e8 00 00 00 00       	callq  14f <try_place+0x14f>
     14f:	48 81 c4 b0 00 00 00 	add    $0xb0,%rsp
     156:	48 8b 85 b0 fd ff ff 	mov    -0x250(%rbp),%rax
     15d:	48 89 85 58 ff ff ff 	mov    %rax,-0xa8(%rbp)
     164:	8b 45 24             	mov    0x24(%rbp),%eax
     167:	89 85 4c ff ff ff    	mov    %eax,-0xb4(%rbp)
     16d:	8b 45 28             	mov    0x28(%rbp),%eax
     170:	85 c0                	test   %eax,%eax
     172:	75 0c                	jne    180 <try_place+0x180>
     174:	c7 85 7c ff ff ff 00 	movl   $0x0,-0x84(%rbp)
     17b:	00 00 00 
     17e:	eb 0a                	jmp    18a <try_place+0x18a>
     180:	c7 85 7c ff ff ff 01 	movl   $0x1,-0x84(%rbp)
     187:	00 00 00 
     18a:	8b 95 4c ff ff ff    	mov    -0xb4(%rbp),%edx
     190:	48 83 ec 30          	sub    $0x30,%rsp
     194:	48 89 e0             	mov    %rsp,%rax
     197:	48 8b 4d 70          	mov    0x70(%rbp),%rcx
     19b:	48 89 08             	mov    %rcx,(%rax)
     19e:	48 8b 4d 78          	mov    0x78(%rbp),%rcx
     1a2:	48 89 48 08          	mov    %rcx,0x8(%rax)
     1a6:	48 8b 8d 80 00 00 00 	mov    0x80(%rbp),%rcx
     1ad:	48 89 48 10          	mov    %rcx,0x10(%rax)
     1b1:	48 8b 8d 88 00 00 00 	mov    0x88(%rbp),%rcx
     1b8:	48 89 48 18          	mov    %rcx,0x18(%rax)
     1bc:	48 8b 8d 90 00 00 00 	mov    0x90(%rbp),%rcx
     1c3:	48 89 48 20          	mov    %rcx,0x20(%rax)
     1c7:	8b 8d 98 00 00 00    	mov    0x98(%rbp),%ecx
     1cd:	89 48 28             	mov    %ecx,0x28(%rax)
     1d0:	89 d7                	mov    %edx,%edi
     1d2:	e8 00 00 00 00       	callq  1d7 <try_place+0x1d7>
     1d7:	48 83 c4 30          	add    $0x30,%rsp
     1db:	8b 75 20             	mov    0x20(%rbp),%esi
     1de:	8b 45 3c             	mov    0x3c(%rbp),%eax
     1e1:	8b 55 1c             	mov    0x1c(%rbp),%edx
     1e4:	89 d7                	mov    %edx,%edi
     1e6:	48 83 ec 08          	sub    $0x8,%rsp
     1ea:	48 8d 8d f8 fe ff ff 	lea    -0x108(%rbp),%rcx
     1f1:	48 8d 95 00 ff ff ff 	lea    -0x100(%rbp),%rdx
     1f8:	ff 75 50             	pushq  0x50(%rbp)
     1fb:	ff 75 48             	pushq  0x48(%rbp)
     1fe:	ff 75 40             	pushq  0x40(%rbp)
     201:	ff 75 38             	pushq  0x38(%rbp)
     204:	ff 75 30             	pushq  0x30(%rbp)
     207:	ff 75 28             	pushq  0x28(%rbp)
     20a:	ff 75 20             	pushq  0x20(%rbp)
     20d:	ff 75 18             	pushq  0x18(%rbp)
     210:	ff 75 10             	pushq  0x10(%rbp)
     213:	89 b5 80 fd ff ff    	mov    %esi,-0x280(%rbp)
     219:	f3 0f 10 85 80 fd ff 	movss  -0x280(%rbp),%xmm0
     220:	ff 
     221:	89 c6                	mov    %eax,%esi
     223:	e8 fb 5c 00 00       	callq  5f23 <alloc_and_load_placement_structs>
     228:	48 83 c4 50          	add    $0x50,%rsp
     22c:	48 8b 55 30          	mov    0x30(%rbp),%rdx
     230:	8b 45 28             	mov    0x28(%rbp),%eax
     233:	48 89 d6             	mov    %rdx,%rsi
     236:	89 c7                	mov    %eax,%edi
     238:	e8 68 7f 00 00       	callq  81a5 <initial_placement>
     23d:	66 0f ef c0          	pxor   %xmm0,%xmm0
     241:	f3 0f 2a 85 4c ff ff 	cvtsi2ssl -0xb4(%rbp),%xmm0
     248:	ff 
     249:	e8 00 00 00 00       	callq  24e <try_place+0x24e>
     24e:	8b 45 10             	mov    0x10(%rbp),%eax
     251:	83 f8 01             	cmp    $0x1,%eax
     254:	74 0c                	je     262 <try_place+0x262>
     256:	8b 45 10             	mov    0x10(%rbp),%eax
     259:	83 f8 02             	cmp    $0x2,%eax
     25c:	0f 85 55 02 00 00    	jne    4b7 <try_place+0x4b7>
     262:	8b 45 3c             	mov    0x3c(%rbp),%eax
     265:	8b 55 1c             	mov    0x1c(%rbp),%edx
     268:	89 d1                	mov    %edx,%ecx
     26a:	89 c2                	mov    %eax,%edx
     26c:	89 ce                	mov    %ecx,%esi
     26e:	bf 00 00 00 00       	mov    $0x0,%edi
     273:	e8 18 4f 00 00       	callq  5190 <comp_bb_cost>
     278:	66 0f 7e c0          	movd   %xmm0,%eax
     27c:	89 85 14 ff ff ff    	mov    %eax,-0xec(%rbp)
     282:	8b 45 4c             	mov    0x4c(%rbp),%eax
     285:	89 85 60 ff ff ff    	mov    %eax,-0xa0(%rbp)
     28b:	e8 4d 1a 00 00       	callq  1cdd <compute_net_pin_index_values>
     290:	e8 d5 19 00 00       	callq  1c6a <count_connections>
     295:	89 85 78 ff ff ff    	mov    %eax,-0x88(%rbp)
     29b:	8b 85 78 ff ff ff    	mov    -0x88(%rbp),%eax
     2a1:	89 c6                	mov    %eax,%esi
     2a3:	bf 00 00 00 00       	mov    $0x0,%edi
     2a8:	b8 00 00 00 00       	mov    $0x0,%eax
     2ad:	e8 00 00 00 00       	callq  2b2 <try_place+0x2b2>
     2b2:	8b 45 10             	mov    0x10(%rbp),%eax
     2b5:	83 f8 01             	cmp    $0x1,%eax
     2b8:	0f 85 f0 00 00 00    	jne    3ae <try_place+0x3ae>
     2be:	c7 85 74 ff ff ff 00 	movl   $0x0,-0x8c(%rbp)
     2c5:	00 00 00 
     2c8:	eb 78                	jmp    342 <try_place+0x342>
     2ca:	c7 85 70 ff ff ff 01 	movl   $0x1,-0x90(%rbp)
     2d1:	00 00 00 
     2d4:	eb 39                	jmp    30f <try_place+0x30f>
     2d6:	48 8b 05 00 00 00 00 	mov    0x0(%rip),%rax        # 2dd <try_place+0x2dd>
     2dd:	8b 95 74 ff ff ff    	mov    -0x8c(%rbp),%edx
     2e3:	48 63 d2             	movslq %edx,%rdx
     2e6:	48 c1 e2 03          	shl    $0x3,%rdx
     2ea:	48 01 d0             	add    %rdx,%rax
     2ed:	48 8b 00             	mov    (%rax),%rax
     2f0:	8b 95 70 ff ff ff    	mov    -0x90(%rbp),%edx
     2f6:	48 63 d2             	movslq %edx,%rdx
     2f9:	48 c1 e2 02          	shl    $0x2,%rdx
     2fd:	48 01 c2             	add    %rax,%rdx
     300:	8b 05 00 00 00 00    	mov    0x0(%rip),%eax        # 306 <try_place+0x306>
     306:	89 02                	mov    %eax,(%rdx)
     308:	83 85 70 ff ff ff 01 	addl   $0x1,-0x90(%rbp)
     30f:	48 8b 0d 00 00 00 00 	mov    0x0(%rip),%rcx        # 316 <try_place+0x316>
     316:	8b 85 74 ff ff ff    	mov    -0x8c(%rbp),%eax
     31c:	48 63 d0             	movslq %eax,%rdx
     31f:	48 89 d0             	mov    %rdx,%rax
     322:	48 c1 e0 02          	shl    $0x2,%rax
     326:	48 01 d0             	add    %rdx,%rax
     329:	48 c1 e0 03          	shl    $0x3,%rax
     32d:	48 01 c8             	add    %rcx,%rax
     330:	8b 40 08             	mov    0x8(%rax),%eax
     333:	3b 85 70 ff ff ff    	cmp    -0x90(%rbp),%eax
     339:	7d 9b                	jge    2d6 <try_place+0x2d6>
     33b:	83 85 74 ff ff ff 01 	addl   $0x1,-0x8c(%rbp)
     342:	8b 05 00 00 00 00    	mov    0x0(%rip),%eax        # 348 <try_place+0x348>
     348:	39 85 74 ff ff ff    	cmp    %eax,-0x8c(%rbp)
     34e:	0f 8c 76 ff ff ff    	jl     2ca <try_place+0x2ca>
     354:	48 8d 95 0c ff ff ff 	lea    -0xf4(%rbp),%rdx
     35b:	48 8d 85 18 ff ff ff 	lea    -0xe8(%rbp),%rax
     362:	48 89 d6             	mov    %rdx,%rsi
     365:	48 89 c7             	mov    %rax,%rdi
     368:	e8 55 4c 00 00       	callq  4fc2 <comp_td_costs>
     36d:	f3 0f 10 8d 0c ff ff 	movss  -0xf4(%rbp),%xmm1
     374:	ff 
     375:	66 0f ef c0          	pxor   %xmm0,%xmm0
     379:	f3 0f 2a 85 78 ff ff 	cvtsi2ssl -0x88(%rbp),%xmm0
     380:	ff 
     381:	f3 0f 5e c8          	divss  %xmm0,%xmm1
     385:	66 0f 7e c8          	movd   %xmm1,%eax
     389:	89 45 b4             	mov    %eax,-0x4c(%rbp)
     38c:	48 8b 85 b0 fd ff ff 	mov    -0x250(%rbp),%rax
     393:	8b 55 b4             	mov    -0x4c(%rbp),%edx
     396:	89 95 80 fd ff ff    	mov    %edx,-0x280(%rbp)
     39c:	f3 0f 10 85 80 fd ff 	movss  -0x280(%rbp),%xmm0
     3a3:	ff 
     3a4:	48 89 c7             	mov    %rax,%rdi
     3a7:	e8 00 00 00 00       	callq  3ac <try_place+0x3ac>
     3ac:	eb 09                	jmp    3b7 <try_place+0x3b7>
     3ae:	8b 05 00 00 00 00    	mov    0x0(%rip),%eax        # 3b4 <try_place+0x3b4>
     3b4:	89 45 b4             	mov    %eax,-0x4c(%rbp)
     3b7:	8b 45 10             	mov    0x10(%rbp),%eax
     3ba:	83 f8 02             	cmp    $0x2,%eax
     3bd:	75 0e                	jne    3cd <try_place+0x3cd>
     3bf:	48 8b 05 00 00 00 00 	mov    0x0(%rip),%rax        # 3c6 <try_place+0x3c6>
     3c6:	48 89 85 b0 fd ff ff 	mov    %rax,-0x250(%rbp)
     3cd:	48 8b 85 b0 fd ff ff 	mov    -0x250(%rbp),%rax
     3d4:	48 89 c7             	mov    %rax,%rdi
     3d7:	e8 00 00 00 00       	callq  3dc <try_place+0x3dc>
     3dc:	48 8b 85 b8 fd ff ff 	mov    -0x248(%rbp),%rax
     3e3:	66 0f ef c0          	pxor   %xmm0,%xmm0
     3e7:	48 89 c7             	mov    %rax,%rdi
     3ea:	e8 00 00 00 00       	callq  3ef <try_place+0x3ef>
     3ef:	66 0f 7e c0          	movd   %xmm0,%eax
     3f3:	89 45 b8             	mov    %eax,-0x48(%rbp)
     3f6:	48 8b 85 b8 fd ff ff 	mov    -0x248(%rbp),%rax
     3fd:	48 83 ec 08          	sub    $0x8,%rsp
     401:	8b 8d 60 ff ff ff    	mov    -0xa0(%rbp),%ecx
     407:	8b 55 b8             	mov    -0x48(%rbp),%edx
     40a:	ff 75 50             	pushq  0x50(%rbp)
     40d:	ff 75 48             	pushq  0x48(%rbp)
     410:	ff 75 40             	pushq  0x40(%rbp)
     413:	ff 75 38             	pushq  0x38(%rbp)
     416:	ff 75 30             	pushq  0x30(%rbp)
     419:	ff 75 28             	pushq  0x28(%rbp)
     41c:	ff 75 20             	pushq  0x20(%rbp)
     41f:	ff 75 18             	pushq  0x18(%rbp)
     422:	ff 75 10             	pushq  0x10(%rbp)
     425:	89 8d 80 fd ff ff    	mov    %ecx,-0x280(%rbp)
     42b:	f3 0f 10 8d 80 fd ff 	movss  -0x280(%rbp),%xmm1
     432:	ff 
     433:	89 95 80 fd ff ff    	mov    %edx,-0x280(%rbp)
     439:	f3 0f 10 85 80 fd ff 	movss  -0x280(%rbp),%xmm0
     440:	ff 
     441:	48 89 c7             	mov    %rax,%rdi
     444:	e8 00 00 00 00       	callq  449 <try_place+0x449>
     449:	48 83 c4 50          	add    $0x50,%rsp
     44d:	c7 85 6c ff ff ff 01 	movl   $0x1,-0x94(%rbp)
     454:	00 00 00 
     457:	48 8d 95 0c ff ff ff 	lea    -0xf4(%rbp),%rdx
     45e:	48 8d 85 18 ff ff ff 	lea    -0xe8(%rbp),%rax
     465:	48 89 d6             	mov    %rdx,%rsi
     468:	48 89 c7             	mov    %rax,%rdi
     46b:	e8 52 4b 00 00       	callq  4fc2 <comp_td_costs>
     470:	f3 0f 10 8d 18 ff ff 	movss  -0xe8(%rbp),%xmm1
     477:	ff 
     478:	f3 0f 10 05 00 00 00 	movss  0x0(%rip),%xmm0        # 480 <try_place+0x480>
     47f:	00 
     480:	f3 0f 5e c1          	divss  %xmm1,%xmm0
     484:	66 0f 7e c0          	movd   %xmm0,%eax
     488:	89 45 ac             	mov    %eax,-0x54(%rbp)
     48b:	f3 0f 10 8d 14 ff ff 	movss  -0xec(%rbp),%xmm1
     492:	ff 
     493:	f3 0f 10 05 00 00 00 	movss  0x0(%rip),%xmm0        # 49b <try_place+0x49b>
     49a:	00 
     49b:	f3 0f 5e c1          	divss  %xmm1,%xmm0
     49f:	66 0f 7e c0          	movd   %xmm0,%eax
     4a3:	89 45 b0             	mov    %eax,-0x50(%rbp)
     4a6:	8b 05 00 00 00 00    	mov    0x0(%rip),%eax        # 4ac <try_place+0x4ac>
     4ac:	89 85 1c ff ff ff    	mov    %eax,-0xe4(%rbp)
     4b2:	e9 88 00 00 00       	jmpq   53f <try_place+0x53f>
     4b7:	8b 45 3c             	mov    0x3c(%rbp),%eax
     4ba:	8b 55 1c             	mov    0x1c(%rbp),%edx
     4bd:	89 d1                	mov    %edx,%ecx
     4bf:	89 c2                	mov    %eax,%edx
     4c1:	89 ce                	mov    %ecx,%esi
     4c3:	bf 00 00 00 00       	mov    $0x0,%edi
     4c8:	e8 c3 4c 00 00       	callq  5190 <comp_bb_cost>
     4cd:	66 0f 7e c0          	movd   %xmm0,%eax
     4d1:	89 85 14 ff ff ff    	mov    %eax,-0xec(%rbp)
     4d7:	8b 85 14 ff ff ff    	mov    -0xec(%rbp),%eax
     4dd:	89 85 1c ff ff ff    	mov    %eax,-0xe4(%rbp)
     4e3:	8b 05 00 00 00 00    	mov    0x0(%rip),%eax        # 4e9 <try_place+0x4e9>
     4e9:	89 85 18 ff ff ff    	mov    %eax,-0xe8(%rbp)
     4ef:	8b 05 00 00 00 00    	mov    0x0(%rip),%eax        # 4f5 <try_place+0x4f5>
     4f5:	89 85 0c ff ff ff    	mov    %eax,-0xf4(%rbp)
     4fb:	8b 05 00 00 00 00    	mov    0x0(%rip),%eax        # 501 <try_place+0x501>
     501:	89 45 b4             	mov    %eax,-0x4c(%rbp)
     504:	c7 85 6c ff ff ff 00 	movl   $0x0,-0x94(%rbp)
     50b:	00 00 00 
     50e:	c7 85 78 ff ff ff 00 	movl   $0x0,-0x88(%rbp)
     515:	00 00 00 
     518:	8b 05 00 00 00 00    	mov    0x0(%rip),%eax        # 51e <try_place+0x51e>
     51e:	89 45 b8             	mov    %eax,-0x48(%rbp)
     521:	8b 05 00 00 00 00    	mov    0x0(%rip),%eax        # 527 <try_place+0x527>
     527:	89 85 60 ff ff ff    	mov    %eax,-0xa0(%rbp)
     52d:	8b 05 00 00 00 00    	mov    0x0(%rip),%eax        # 533 <try_place+0x533>
     533:	89 45 ac             	mov    %eax,-0x54(%rbp)
     536:	8b 05 00 00 00 00    	mov    0x0(%rip),%eax        # 53c <try_place+0x53c>
     53c:	89 45 b0             	mov    %eax,-0x50(%rbp)
     53f:	f3 0f 10 45 5c       	movss  0x5c(%rbp),%xmm0
     544:	f3 0f 5a e8          	cvtss2sd %xmm0,%xmm5
     548:	f2 0f 11 ad 80 fd ff 	movsd  %xmm5,-0x280(%rbp)
     54f:	ff 
     550:	8b 05 00 00 00 00    	mov    0x0(%rip),%eax        # 556 <try_place+0x556>
     556:	66 0f ef c0          	pxor   %xmm0,%xmm0
     55a:	f2 0f 2a c0          	cvtsi2sd %eax,%xmm0
     55e:	48 b8 da 1b 7c 61 32 	movabs $0x3ff55532617c1bda,%rax
     565:	55 f5 3f 
     568:	48 89 85 78 fd ff ff 	mov    %rax,-0x288(%rbp)
     56f:	f2 0f 10 8d 78 fd ff 	movsd  -0x288(%rbp),%xmm1
     576:	ff 
     577:	e8 00 00 00 00       	callq  57c <try_place+0x57c>
     57c:	f2 0f 59 85 80 fd ff 	mulsd  -0x280(%rbp),%xmm0
     583:	ff 
     584:	f2 0f 2c c0          	cvttsd2si %xmm0,%eax
     588:	89 45 c0             	mov    %eax,-0x40(%rbp)
     58b:	8b 45 48             	mov    0x48(%rbp),%eax
     58e:	85 c0                	test   %eax,%eax
     590:	74 34                	je     5c6 <try_place+0x5c6>
     592:	66 0f ef c0          	pxor   %xmm0,%xmm0
     596:	f3 0f 2a 45 c0       	cvtsi2ssl -0x40(%rbp),%xmm0
     59b:	8b 45 48             	mov    0x48(%rbp),%eax
     59e:	66 0f ef c9          	pxor   %xmm1,%xmm1
     5a2:	f3 0f 2a c8          	cvtsi2ss %eax,%xmm1
     5a6:	f3 0f 5e c1          	divss  %xmm1,%xmm0
     5aa:	f3 0f 5a c0          	cvtss2sd %xmm0,%xmm0
     5ae:	f2 0f 10 0d 00 00 00 	movsd  0x0(%rip),%xmm1        # 5b6 <try_place+0x5b6>
     5b5:	00 
     5b6:	f2 0f 58 c1          	addsd  %xmm1,%xmm0
     5ba:	f2 0f 2c c0          	cvttsd2si %xmm0,%eax
     5be:	89 85 64 ff ff ff    	mov    %eax,-0x9c(%rbp)
     5c4:	eb 0c                	jmp    5d2 <try_place+0x5d2>
     5c6:	8b 45 c0             	mov    -0x40(%rbp),%eax
     5c9:	83 c0 01             	add    $0x1,%eax
     5cc:	89 85 64 ff ff ff    	mov    %eax,-0x9c(%rbp)
     5d2:	83 7d c0 00          	cmpl   $0x0,-0x40(%rbp)
     5d6:	7f 07                	jg     5df <try_place+0x5df>
     5d8:	c7 45 c0 01 00 00 00 	movl   $0x1,-0x40(%rbp)
     5df:	8b 15 00 00 00 00    	mov    0x0(%rip),%edx        # 5e5 <try_place+0x5e5>
     5e5:	8b 05 00 00 00 00    	mov    0x0(%rip),%eax        # 5eb <try_place+0x5eb>
     5eb:	39 c2                	cmp    %eax,%edx
     5ed:	7e 14                	jle    603 <try_place+0x603>
     5ef:	8b 05 00 00 00 00    	mov    0x0(%rip),%eax        # 5f5 <try_place+0x5f5>
     5f5:	66 0f ef f6          	pxor   %xmm6,%xmm6
     5f9:	f3 0f 2a f0          	cvtsi2ss %eax,%xmm6
     5fd:	66 0f 7e f0          	movd   %xmm6,%eax
     601:	eb 12                	jmp    615 <try_place+0x615>
     603:	8b 05 00 00 00 00    	mov    0x0(%rip),%eax        # 609 <try_place+0x609>
     609:	66 0f ef ff          	pxor   %xmm7,%xmm7
     60d:	f3 0f 2a f8          	cvtsi2ss %eax,%xmm7
     611:	66 0f 7e f8          	movd   %xmm7,%eax
     615:	89 85 20 ff ff ff    	mov    %eax,-0xe0(%rbp)
     61b:	8b 85 20 ff ff ff    	mov    -0xe0(%rbp),%eax
     621:	89 85 48 ff ff ff    	mov    %eax,-0xb8(%rbp)
     627:	8b 05 00 00 00 00    	mov    0x0(%rip),%eax        # 62d <try_place+0x62d>
     62d:	89 85 44 ff ff ff    	mov    %eax,-0xbc(%rbp)
     633:	f3 0f 10 85 48 ff ff 	movss  -0xb8(%rbp),%xmm0
     63a:	ff 
     63b:	f3 0f 5c 85 44 ff ff 	subss  -0xbc(%rbp),%xmm0
     642:	ff 
     643:	f3 0f 10 0d 00 00 00 	movss  0x0(%rip),%xmm1        # 64b <try_place+0x64b>
     64a:	00 
     64b:	f3 0f 5e c8          	divss  %xmm0,%xmm1
     64f:	66 0f 7e c8          	movd   %xmm1,%eax
     653:	89 85 40 ff ff ff    	mov    %eax,-0xc0(%rbp)
     659:	8b 5d 14             	mov    0x14(%rbp),%ebx
     65c:	8b 45 10             	mov    0x10(%rbp),%eax
     65f:	8b 8d 20 ff ff ff    	mov    -0xe0(%rbp),%ecx
     665:	44 8b 45 3c          	mov    0x3c(%rbp),%r8d
     669:	4c 8b 9d f8 fe ff ff 	mov    -0x108(%rbp),%r11
     670:	4c 8b 95 00 ff ff ff 	mov    -0x100(%rbp),%r10
     677:	8b 55 1c             	mov    0x1c(%rbp),%edx
     67a:	41 89 d6             	mov    %edx,%r14d
     67d:	44 8b 6d ac          	mov    -0x54(%rbp),%r13d
     681:	44 8b 65 b0          	mov    -0x50(%rbp),%r12d
     685:	48 8d 95 18 ff ff ff 	lea    -0xe8(%rbp),%rdx
     68c:	48 8d b5 14 ff ff ff 	lea    -0xec(%rbp),%rsi
     693:	48 8d bd 1c ff ff ff 	lea    -0xe4(%rbp),%rdi
     69a:	4c 8d 8d 0c ff ff ff 	lea    -0xf4(%rbp),%r9
     6a1:	41 51                	push   %r9
     6a3:	50                   	push   %rax
     6a4:	8b 45 c0             	mov    -0x40(%rbp),%eax
     6a7:	50                   	push   %rax
     6a8:	48 83 ec 18          	sub    $0x18,%rsp
     6ac:	48 89 e0             	mov    %rsp,%rax
     6af:	4c 8b 4d 58          	mov    0x58(%rbp),%r9
     6b3:	4c 89 08             	mov    %r9,(%rax)
     6b6:	4c 8b 4d 60          	mov    0x60(%rbp),%r9
     6ba:	4c 89 48 08          	mov    %r9,0x8(%rax)
     6be:	44 8b 4d 68          	mov    0x68(%rbp),%r9d
     6c2:	44 89 48 10          	mov    %r9d,0x10(%rax)
     6c6:	8b 85 7c ff ff ff    	mov    -0x84(%rbp),%eax
     6cc:	50                   	push   %rax
     6cd:	41 50                	push   %r8
     6cf:	44 89 ad 80 fd ff ff 	mov    %r13d,-0x280(%rbp)
     6d6:	f3 0f 10 9d 80 fd ff 	movss  -0x280(%rbp),%xmm3
     6dd:	ff 
     6de:	44 89 a5 80 fd ff ff 	mov    %r12d,-0x280(%rbp)
     6e5:	f3 0f 10 95 80 fd ff 	movss  -0x280(%rbp),%xmm2
     6ec:	ff 
     6ed:	89 9d 80 fd ff ff    	mov    %ebx,-0x280(%rbp)
     6f3:	f3 0f 10 8d 80 fd ff 	movss  -0x280(%rbp),%xmm1
     6fa:	ff 
     6fb:	89 8d 80 fd ff ff    	mov    %ecx,-0x280(%rbp)
     701:	f3 0f 10 85 80 fd ff 	movss  -0x280(%rbp),%xmm0
     708:	ff 
     709:	4d 89 d9             	mov    %r11,%r9
     70c:	4d 89 d0             	mov    %r10,%r8
     70f:	44 89 f1             	mov    %r14d,%ecx
     712:	e8 2a 1a 00 00       	callq  2141 <starting_t>
     717:	48 83 c4 40          	add    $0x40,%rsp
     71b:	66 0f 7e c0          	movd   %xmm0,%eax
     71f:	89 85 24 ff ff ff    	mov    %eax,-0xdc(%rbp)
     725:	c7 45 cc 00 00 00 00 	movl   $0x0,-0x34(%rbp)
     72c:	c7 45 bc 00 00 00 00 	movl   $0x0,-0x44(%rbp)
     733:	f3 0f 10 85 0c ff ff 	movss  -0xf4(%rbp),%xmm0
     73a:	ff 
     73b:	f3 0f 5a d8          	cvtss2sd %xmm0,%xmm3
     73f:	f3 0f 10 85 18 ff ff 	movss  -0xe8(%rbp),%xmm0
     746:	ff 
     747:	f3 0f 5a d0          	cvtss2sd %xmm0,%xmm2
     74b:	f3 0f 10 85 14 ff ff 	movss  -0xec(%rbp),%xmm0
     752:	ff 
     753:	f3 0f 5a c8          	cvtss2sd %xmm0,%xmm1
     757:	f3 0f 10 85 1c ff ff 	movss  -0xe4(%rbp),%xmm0
     75e:	ff 
     75f:	f3 0f 5a c0          	cvtss2sd %xmm0,%xmm0
     763:	bf 00 00 00 00       	mov    $0x0,%edi
     768:	b8 04 00 00 00       	mov    $0x4,%eax
     76d:	e8 00 00 00 00       	callq  772 <try_place+0x772>
     772:	68 00 00 00 00       	pushq  $0x0
     777:	68 00 00 00 00       	pushq  $0x0
     77c:	68 00 00 00 00       	pushq  $0x0
     781:	68 00 00 00 00       	pushq  $0x0
     786:	68 00 00 00 00       	pushq  $0x0
     78b:	68 00 00 00 00       	pushq  $0x0
     790:	68 00 00 00 00       	pushq  $0x0
     795:	68 00 00 00 00       	pushq  $0x0
     79a:	41 b9 00 00 00 00    	mov    $0x0,%r9d
     7a0:	41 b8 00 00 00 00    	mov    $0x0,%r8d
     7a6:	b9 00 00 00 00       	mov    $0x0,%ecx
     7ab:	ba 00 00 00 00       	mov    $0x0,%edx
     7b0:	be 00 00 00 00       	mov    $0x0,%esi
     7b5:	bf 00 00 00 00       	mov    $0x0,%edi
     7ba:	b8 00 00 00 00       	mov    $0x0,%eax
     7bf:	e8 00 00 00 00       	callq  7c4 <try_place+0x7c4>
     7c4:	48 83 c4 40          	add    $0x40,%rsp
     7c8:	68 00 00 00 00       	pushq  $0x0
     7cd:	68 00 00 00 00       	pushq  $0x0
     7d2:	68 00 00 00 00       	pushq  $0x0
     7d7:	68 00 00 00 00       	pushq  $0x0
     7dc:	68 00 00 00 00       	pushq  $0x0
     7e1:	68 00 00 00 00       	pushq  $0x0
     7e6:	68 00 00 00 00       	pushq  $0x0
     7eb:	68 00 00 00 00       	pushq  $0x0
     7f0:	41 b9 00 00 00 00    	mov    $0x0,%r9d
     7f6:	41 b8 00 00 00 00    	mov    $0x0,%r8d
     7fc:	b9 00 00 00 00       	mov    $0x0,%ecx
     801:	ba 00 00 00 00       	mov    $0x0,%edx
     806:	be 00 00 00 00       	mov    $0x0,%esi
     80b:	bf 00 00 00 00       	mov    $0x0,%edi
     810:	b8 00 00 00 00       	mov    $0x0,%eax
     815:	e8 00 00 00 00       	callq  81a <try_place+0x81a>
     81a:	48 83 c4 40          	add    $0x40,%rsp
     81e:	f3 0f 5a 65 b8       	cvtss2sd -0x48(%rbp),%xmm4
     823:	f3 0f 10 85 0c ff ff 	movss  -0xf4(%rbp),%xmm0
     82a:	ff 
     82b:	f3 0f 5a d8          	cvtss2sd %xmm0,%xmm3
     82f:	f3 0f 10 85 18 ff ff 	movss  -0xe8(%rbp),%xmm0
     836:	ff 
     837:	f3 0f 5a d0          	cvtss2sd %xmm0,%xmm2
     83b:	f3 0f 10 85 14 ff ff 	movss  -0xec(%rbp),%xmm0
     842:	ff 
     843:	f3 0f 5a c8          	cvtss2sd %xmm0,%xmm1
     847:	f3 0f 10 85 1c ff ff 	movss  -0xe4(%rbp),%xmm0
     84e:	ff 
     84f:	f3 0f 5a c0          	cvtss2sd %xmm0,%xmm0
     853:	8b 95 4c ff ff ff    	mov    -0xb4(%rbp),%edx
     859:	48 8d 85 c0 fd ff ff 	lea    -0x240(%rbp),%rax
     860:	be 00 00 00 00       	mov    $0x0,%esi
     865:	48 89 c7             	mov    %rax,%rdi
     868:	b8 05 00 00 00       	mov    $0x5,%eax
     86d:	e8 00 00 00 00       	callq  872 <try_place+0x872>
     872:	48 8d 85 c0 fd ff ff 	lea    -0x240(%rbp),%rax
     879:	b9 00 00 00 00       	mov    $0x0,%ecx
     87e:	ba 01 00 00 00       	mov    $0x1,%edx
     883:	48 89 c6             	mov    %rax,%rsi
     886:	bf 01 00 00 00       	mov    $0x1,%edi
     88b:	e8 00 00 00 00       	callq  890 <try_place+0x890>
     890:	e9 89 09 00 00       	jmpq   121e <try_place+0x121e>
     895:	8b 45 10             	mov    0x10(%rbp),%eax
     898:	83 f8 01             	cmp    $0x1,%eax
     89b:	74 08                	je     8a5 <try_place+0x8a5>
     89d:	8b 45 10             	mov    0x10(%rbp),%eax
     8a0:	83 f8 02             	cmp    $0x2,%eax
     8a3:	75 0c                	jne    8b1 <try_place+0x8b1>
     8a5:	8b 05 00 00 00 00    	mov    0x0(%rip),%eax        # 8ab <try_place+0x8ab>
     8ab:	89 85 1c ff ff ff    	mov    %eax,-0xe4(%rbp)
     8b1:	b8 00 00 00 00       	mov    $0x0,%eax
     8b6:	48 89 45 a0          	mov    %rax,-0x60(%rbp)
     8ba:	b8 00 00 00 00       	mov    $0x0,%eax
     8bf:	48 89 45 98          	mov    %rax,-0x68(%rbp)
     8c3:	b8 00 00 00 00       	mov    $0x0,%eax
     8c8:	48 89 45 88          	mov    %rax,-0x78(%rbp)
     8cc:	b8 00 00 00 00       	mov    $0x0,%eax
     8d1:	48 89 45 90          	mov    %rax,-0x70(%rbp)
     8d5:	b8 00 00 00 00       	mov    $0x0,%eax
     8da:	48 89 45 80          	mov    %rax,-0x80(%rbp)
     8de:	c7 45 c4 00 00 00 00 	movl   $0x0,-0x3c(%rbp)
     8e5:	8b 45 10             	mov    0x10(%rbp),%eax
     8e8:	83 f8 01             	cmp    $0x1,%eax
     8eb:	74 0c                	je     8f9 <try_place+0x8f9>
     8ed:	8b 45 10             	mov    0x10(%rbp),%eax
     8f0:	83 f8 02             	cmp    $0x2,%eax
     8f3:	0f 85 3d 01 00 00    	jne    a36 <try_place+0xa36>
     8f9:	8b 45 40             	mov    0x40(%rbp),%eax
     8fc:	3b 85 6c ff ff ff    	cmp    -0x94(%rbp),%eax
     902:	7e 0b                	jle    90f <try_place+0x90f>
     904:	8b 45 48             	mov    0x48(%rbp),%eax
     907:	85 c0                	test   %eax,%eax
     909:	0f 84 ea 00 00 00    	je     9f9 <try_place+0x9f9>
     90f:	f3 0f 10 8d 0c ff ff 	movss  -0xf4(%rbp),%xmm1
     916:	ff 
     917:	66 0f ef c0          	pxor   %xmm0,%xmm0
     91b:	f3 0f 2a 85 78 ff ff 	cvtsi2ssl -0x88(%rbp),%xmm0
     922:	ff 
     923:	f3 0f 5e c8          	divss  %xmm0,%xmm1
     927:	66 0f 7e c8          	movd   %xmm1,%eax
     92b:	89 45 b4             	mov    %eax,-0x4c(%rbp)
     92e:	8b 45 10             	mov    0x10(%rbp),%eax
     931:	83 f8 01             	cmp    $0x1,%eax
     934:	75 20                	jne    956 <try_place+0x956>
     936:	48 8b 85 b0 fd ff ff 	mov    -0x250(%rbp),%rax
     93d:	8b 55 b4             	mov    -0x4c(%rbp),%edx
     940:	89 95 80 fd ff ff    	mov    %edx,-0x280(%rbp)
     946:	f3 0f 10 85 80 fd ff 	movss  -0x280(%rbp),%xmm0
     94d:	ff 
     94e:	48 89 c7             	mov    %rax,%rdi
     951:	e8 00 00 00 00       	callq  956 <try_place+0x956>
     956:	48 8b 85 b0 fd ff ff 	mov    -0x250(%rbp),%rax
     95d:	48 89 c7             	mov    %rax,%rdi
     960:	e8 00 00 00 00       	callq  965 <try_place+0x965>
     965:	48 8b 85 b8 fd ff ff 	mov    -0x248(%rbp),%rax
     96c:	66 0f ef c0          	pxor   %xmm0,%xmm0
     970:	48 89 c7             	mov    %rax,%rdi
     973:	e8 00 00 00 00       	callq  978 <try_place+0x978>
     978:	66 0f 7e c0          	movd   %xmm0,%eax
     97c:	89 45 b8             	mov    %eax,-0x48(%rbp)
     97f:	48 8b 85 b8 fd ff ff 	mov    -0x248(%rbp),%rax
     986:	48 83 ec 08          	sub    $0x8,%rsp
     98a:	8b 8d 60 ff ff ff    	mov    -0xa0(%rbp),%ecx
     990:	8b 55 b8             	mov    -0x48(%rbp),%edx
     993:	ff 75 50             	pushq  0x50(%rbp)
     996:	ff 75 48             	pushq  0x48(%rbp)
     999:	ff 75 40             	pushq  0x40(%rbp)
     99c:	ff 75 38             	pushq  0x38(%rbp)
     99f:	ff 75 30             	pushq  0x30(%rbp)
     9a2:	ff 75 28             	pushq  0x28(%rbp)
     9a5:	ff 75 20             	pushq  0x20(%rbp)
     9a8:	ff 75 18             	pushq  0x18(%rbp)
     9ab:	ff 75 10             	pushq  0x10(%rbp)
     9ae:	89 8d 80 fd ff ff    	mov    %ecx,-0x280(%rbp)
     9b4:	f3 0f 10 8d 80 fd ff 	movss  -0x280(%rbp),%xmm1
     9bb:	ff 
     9bc:	89 95 80 fd ff ff    	mov    %edx,-0x280(%rbp)
     9c2:	f3 0f 10 85 80 fd ff 	movss  -0x280(%rbp),%xmm0
     9c9:	ff 
     9ca:	48 89 c7             	mov    %rax,%rdi
     9cd:	e8 00 00 00 00       	callq  9d2 <try_place+0x9d2>
     9d2:	48 83 c4 50          	add    $0x50,%rsp
     9d6:	48 8d 95 0c ff ff ff 	lea    -0xf4(%rbp),%rdx
     9dd:	48 8d 85 18 ff ff ff 	lea    -0xe8(%rbp),%rax
     9e4:	48 89 d6             	mov    %rdx,%rsi
     9e7:	48 89 c7             	mov    %rax,%rdi
     9ea:	e8 d3 45 00 00       	callq  4fc2 <comp_td_costs>
     9ef:	c7 85 6c ff ff ff 00 	movl   $0x0,-0x94(%rbp)
     9f6:	00 00 00 
     9f9:	83 85 6c ff ff ff 01 	addl   $0x1,-0x94(%rbp)
     a00:	f3 0f 10 8d 14 ff ff 	movss  -0xec(%rbp),%xmm1
     a07:	ff 
     a08:	f3 0f 10 05 00 00 00 	movss  0x0(%rip),%xmm0        # a10 <try_place+0xa10>
     a0f:	00 
     a10:	f3 0f 5e c1          	divss  %xmm1,%xmm0
     a14:	66 0f 7e c0          	movd   %xmm0,%eax
     a18:	89 45 b0             	mov    %eax,-0x50(%rbp)
     a1b:	f3 0f 10 8d 18 ff ff 	movss  -0xe8(%rbp),%xmm1
     a22:	ff 
     a23:	f3 0f 10 05 00 00 00 	movss  0x0(%rip),%xmm0        # a2b <try_place+0xa2b>
     a2a:	00 
     a2b:	f3 0f 5e c1          	divss  %xmm1,%xmm0
     a2f:	66 0f 7e c0          	movd   %xmm0,%eax
     a33:	89 45 ac             	mov    %eax,-0x54(%rbp)
     a36:	c7 85 68 ff ff ff 01 	movl   $0x1,-0x98(%rbp)
     a3d:	00 00 00 
     a40:	c7 45 c8 00 00 00 00 	movl   $0x0,-0x38(%rbp)
     a47:	e9 9d 02 00 00       	jmpq   ce9 <try_place+0xce9>
     a4c:	44 8b 65 14          	mov    0x14(%rbp),%r12d
     a50:	44 8b 45 10          	mov    0x10(%rbp),%r8d
     a54:	8b 4d 3c             	mov    0x3c(%rbp),%ecx
     a57:	48 8b 9d f8 fe ff ff 	mov    -0x108(%rbp),%rbx
     a5e:	4c 8b 9d 00 ff ff ff 	mov    -0x100(%rbp),%r11
     a65:	8b 45 1c             	mov    0x1c(%rbp),%eax
     a68:	41 89 c7             	mov    %eax,%r15d
     a6b:	44 8b 95 20 ff ff ff 	mov    -0xe0(%rbp),%r10d
     a72:	8b 85 24 ff ff ff    	mov    -0xdc(%rbp),%eax
     a78:	48 83 ec 08          	sub    $0x8,%rsp
     a7c:	44 8b 75 ac          	mov    -0x54(%rbp),%r14d
     a80:	44 8b 6d b0          	mov    -0x50(%rbp),%r13d
     a84:	48 8d 95 18 ff ff ff 	lea    -0xe8(%rbp),%rdx
     a8b:	48 8d b5 14 ff ff ff 	lea    -0xec(%rbp),%rsi
     a92:	48 8d bd 1c ff ff ff 	lea    -0xe4(%rbp),%rdi
     a99:	ff b5 50 ff ff ff    	pushq  -0xb0(%rbp)
     a9f:	4c 8d 8d 0c ff ff ff 	lea    -0xf4(%rbp),%r9
     aa6:	41 51                	push   %r9
     aa8:	41 50                	push   %r8
     aaa:	44 8b 85 7c ff ff ff 	mov    -0x84(%rbp),%r8d
     ab1:	41 50                	push   %r8
     ab3:	51                   	push   %rcx
     ab4:	44 89 b5 80 fd ff ff 	mov    %r14d,-0x280(%rbp)
     abb:	f3 0f 10 a5 80 fd ff 	movss  -0x280(%rbp),%xmm4
     ac2:	ff 
     ac3:	44 89 ad 80 fd ff ff 	mov    %r13d,-0x280(%rbp)
     aca:	f3 0f 10 9d 80 fd ff 	movss  -0x280(%rbp),%xmm3
     ad1:	ff 
     ad2:	44 89 a5 80 fd ff ff 	mov    %r12d,-0x280(%rbp)
     ad9:	f3 0f 10 95 80 fd ff 	movss  -0x280(%rbp),%xmm2
     ae0:	ff 
     ae1:	49 89 d9             	mov    %rbx,%r9
     ae4:	4d 89 d8             	mov    %r11,%r8
     ae7:	44 89 f9             	mov    %r15d,%ecx
     aea:	44 89 95 80 fd ff ff 	mov    %r10d,-0x280(%rbp)
     af1:	f3 0f 10 8d 80 fd ff 	movss  -0x280(%rbp),%xmm1
     af8:	ff 
     af9:	89 85 80 fd ff ff    	mov    %eax,-0x280(%rbp)
     aff:	f3 0f 10 85 80 fd ff 	movss  -0x280(%rbp),%xmm0
     b06:	ff 
     b07:	e8 74 18 00 00       	callq  2380 <try_swap>
     b0c:	48 83 c4 30          	add    $0x30,%rsp
     b10:	83 f8 01             	cmp    $0x1,%eax
     b13:	0f 85 a6 00 00 00    	jne    bbf <try_place+0xbbf>
     b19:	83 45 c4 01          	addl   $0x1,-0x3c(%rbp)
     b1d:	f3 0f 10 85 1c ff ff 	movss  -0xe4(%rbp),%xmm0
     b24:	ff 
     b25:	f3 0f 5a c0          	cvtss2sd %xmm0,%xmm0
     b29:	f2 0f 10 4d a0       	movsd  -0x60(%rbp),%xmm1
     b2e:	f2 0f 58 c8          	addsd  %xmm0,%xmm1
     b32:	66 48 0f 7e c8       	movq   %xmm1,%rax
     b37:	48 89 45 a0          	mov    %rax,-0x60(%rbp)
     b3b:	f3 0f 10 85 14 ff ff 	movss  -0xec(%rbp),%xmm0
     b42:	ff 
     b43:	f3 0f 5a c0          	cvtss2sd %xmm0,%xmm0
     b47:	f2 0f 10 4d 98       	movsd  -0x68(%rbp),%xmm1
     b4c:	f2 0f 58 c8          	addsd  %xmm0,%xmm1
     b50:	66 48 0f 7e c8       	movq   %xmm1,%rax
     b55:	48 89 45 98          	mov    %rax,-0x68(%rbp)
     b59:	f3 0f 10 85 18 ff ff 	movss  -0xe8(%rbp),%xmm0
     b60:	ff 
     b61:	f3 0f 5a c0          	cvtss2sd %xmm0,%xmm0
     b65:	f2 0f 10 4d 90       	movsd  -0x70(%rbp),%xmm1
     b6a:	f2 0f 58 c8          	addsd  %xmm0,%xmm1
     b6e:	66 48 0f 7e c8       	movq   %xmm1,%rax
     b73:	48 89 45 90          	mov    %rax,-0x70(%rbp)
     b77:	f3 0f 10 85 0c ff ff 	movss  -0xf4(%rbp),%xmm0
     b7e:	ff 
     b7f:	f3 0f 5a c0          	cvtss2sd %xmm0,%xmm0
     b83:	f2 0f 10 4d 88       	movsd  -0x78(%rbp),%xmm1
     b88:	f2 0f 58 c8          	addsd  %xmm0,%xmm1
     b8c:	66 48 0f 7e c8       	movq   %xmm1,%rax
     b91:	48 89 45 88          	mov    %rax,-0x78(%rbp)
     b95:	f3 0f 10 8d 1c ff ff 	movss  -0xe4(%rbp),%xmm1
     b9c:	ff 
     b9d:	f3 0f 10 85 1c ff ff 	movss  -0xe4(%rbp),%xmm0
     ba4:	ff 
     ba5:	f3 0f 59 c1          	mulss  %xmm1,%xmm0
     ba9:	f3 0f 5a c0          	cvtss2sd %xmm0,%xmm0
     bad:	f2 0f 10 4d 80       	movsd  -0x80(%rbp),%xmm1
     bb2:	f2 0f 58 c8          	addsd  %xmm0,%xmm1
     bb6:	66 48 0f 7e c8       	movq   %xmm1,%rax
     bbb:	48 89 45 80          	mov    %rax,-0x80(%rbp)
     bbf:	8b 45 10             	mov    0x10(%rbp),%eax
     bc2:	83 f8 01             	cmp    $0x1,%eax
     bc5:	74 0c                	je     bd3 <try_place+0xbd3>
     bc7:	8b 45 10             	mov    0x10(%rbp),%eax
     bca:	83 f8 02             	cmp    $0x2,%eax
     bcd:	0f 85 12 01 00 00    	jne    ce5 <try_place+0xce5>
     bd3:	8b 85 68 ff ff ff    	mov    -0x98(%rbp),%eax
     bd9:	3b 85 64 ff ff ff    	cmp    -0x9c(%rbp),%eax
     bdf:	0f 8c f9 00 00 00    	jl     cde <try_place+0xcde>
     be5:	8b 45 c0             	mov    -0x40(%rbp),%eax
     be8:	83 e8 01             	sub    $0x1,%eax
     beb:	3b 45 c8             	cmp    -0x38(%rbp),%eax
     bee:	0f 84 ea 00 00 00    	je     cde <try_place+0xcde>
     bf4:	c7 85 68 ff ff ff 00 	movl   $0x0,-0x98(%rbp)
     bfb:	00 00 00 
     bfe:	8b 45 10             	mov    0x10(%rbp),%eax
     c01:	83 f8 01             	cmp    $0x1,%eax
     c04:	75 3f                	jne    c45 <try_place+0xc45>
     c06:	f3 0f 10 8d 0c ff ff 	movss  -0xf4(%rbp),%xmm1
     c0d:	ff 
     c0e:	66 0f ef c0          	pxor   %xmm0,%xmm0
     c12:	f3 0f 2a 85 78 ff ff 	cvtsi2ssl -0x88(%rbp),%xmm0
     c19:	ff 
     c1a:	f3 0f 5e c8          	divss  %xmm0,%xmm1
     c1e:	66 0f 7e c8          	movd   %xmm1,%eax
     c22:	89 45 b4             	mov    %eax,-0x4c(%rbp)
     c25:	48 8b 85 b0 fd ff ff 	mov    -0x250(%rbp),%rax
     c2c:	8b 55 b4             	mov    -0x4c(%rbp),%edx
     c2f:	89 95 80 fd ff ff    	mov    %edx,-0x280(%rbp)
     c35:	f3 0f 10 85 80 fd ff 	movss  -0x280(%rbp),%xmm0
     c3c:	ff 
     c3d:	48 89 c7             	mov    %rax,%rdi
     c40:	e8 00 00 00 00       	callq  c45 <try_place+0xc45>
     c45:	48 8b 85 b0 fd ff ff 	mov    -0x250(%rbp),%rax
     c4c:	48 89 c7             	mov    %rax,%rdi
     c4f:	e8 00 00 00 00       	callq  c54 <try_place+0xc54>
     c54:	48 8b 85 b8 fd ff ff 	mov    -0x248(%rbp),%rax
     c5b:	66 0f ef c0          	pxor   %xmm0,%xmm0
     c5f:	48 89 c7             	mov    %rax,%rdi
     c62:	e8 00 00 00 00       	callq  c67 <try_place+0xc67>
     c67:	66 0f 7e c0          	movd   %xmm0,%eax
     c6b:	89 45 b8             	mov    %eax,-0x48(%rbp)
     c6e:	48 8b 85 b8 fd ff ff 	mov    -0x248(%rbp),%rax
     c75:	48 83 ec 08          	sub    $0x8,%rsp
     c79:	8b 8d 60 ff ff ff    	mov    -0xa0(%rbp),%ecx
     c7f:	8b 55 b8             	mov    -0x48(%rbp),%edx
     c82:	ff 75 50             	pushq  0x50(%rbp)
     c85:	ff 75 48             	pushq  0x48(%rbp)
     c88:	ff 75 40             	pushq  0x40(%rbp)
     c8b:	ff 75 38             	pushq  0x38(%rbp)
     c8e:	ff 75 30             	pushq  0x30(%rbp)
     c91:	ff 75 28             	pushq  0x28(%rbp)
     c94:	ff 75 20             	pushq  0x20(%rbp)
     c97:	ff 75 18             	pushq  0x18(%rbp)
     c9a:	ff 75 10             	pushq  0x10(%rbp)
     c9d:	89 8d 80 fd ff ff    	mov    %ecx,-0x280(%rbp)
     ca3:	f3 0f 10 8d 80 fd ff 	movss  -0x280(%rbp),%xmm1
     caa:	ff 
     cab:	89 95 80 fd ff ff    	mov    %edx,-0x280(%rbp)
     cb1:	f3 0f 10 85 80 fd ff 	movss  -0x280(%rbp),%xmm0
     cb8:	ff 
     cb9:	48 89 c7             	mov    %rax,%rdi
     cbc:	e8 00 00 00 00       	callq  cc1 <try_place+0xcc1>
     cc1:	48 83 c4 50          	add    $0x50,%rsp
     cc5:	48 8d 95 0c ff ff ff 	lea    -0xf4(%rbp),%rdx
     ccc:	48 8d 85 18 ff ff ff 	lea    -0xe8(%rbp),%rax
     cd3:	48 89 d6             	mov    %rdx,%rsi
     cd6:	48 89 c7             	mov    %rax,%rdi
     cd9:	e8 e4 42 00 00       	callq  4fc2 <comp_td_costs>
     cde:	83 85 68 ff ff ff 01 	addl   $0x1,-0x98(%rbp)
     ce5:	83 45 c8 01          	addl   $0x1,-0x38(%rbp)
     ce9:	8b 45 c8             	mov    -0x38(%rbp),%eax
     cec:	3b 45 c0             	cmp    -0x40(%rbp),%eax
     cef:	0f 8c 57 fd ff ff    	jl     a4c <try_place+0xa4c>
     cf5:	8b 45 c0             	mov    -0x40(%rbp),%eax
     cf8:	01 45 bc             	add    %eax,-0x44(%rbp)
     cfb:	81 7d bc 50 c3 00 00 	cmpl   $0xc350,-0x44(%rbp)
     d02:	0f 8e ca 01 00 00    	jle    ed2 <try_place+0xed2>
     d08:	8b 45 3c             	mov    0x3c(%rbp),%eax
     d0b:	8b 55 1c             	mov    0x1c(%rbp),%edx
     d0e:	89 c6                	mov    %eax,%esi
     d10:	89 d7                	mov    %edx,%edi
     d12:	e8 a6 2f 00 00       	callq  3cbd <recompute_bb_cost>
     d17:	66 0f 7e c0          	movd   %xmm0,%eax
     d1b:	89 85 3c ff ff ff    	mov    %eax,-0xc4(%rbp)
     d21:	f3 0f 10 8d 14 ff ff 	movss  -0xec(%rbp),%xmm1
     d28:	ff 
     d29:	f3 0f 10 85 3c ff ff 	movss  -0xc4(%rbp),%xmm0
     d30:	ff 
     d31:	f3 0f 5c c1          	subss  %xmm1,%xmm0
     d35:	f3 0f 10 0d 00 00 00 	movss  0x0(%rip),%xmm1        # d3d <try_place+0xd3d>
     d3c:	00 
     d3d:	0f 54 c1             	andps  %xmm1,%xmm0
     d40:	f3 0f 5a c0          	cvtss2sd %xmm0,%xmm0
     d44:	f3 0f 10 8d 14 ff ff 	movss  -0xec(%rbp),%xmm1
     d4b:	ff 
     d4c:	f3 0f 5a c9          	cvtss2sd %xmm1,%xmm1
     d50:	f2 0f 10 15 00 00 00 	movsd  0x0(%rip),%xmm2        # d58 <try_place+0xd58>
     d57:	00 
     d58:	f2 0f 59 ca          	mulsd  %xmm2,%xmm1
     d5c:	66 0f 2e c1          	ucomisd %xmm1,%xmm0
     d60:	76 2d                	jbe    d8f <try_place+0xd8f>
     d62:	f3 0f 10 85 14 ff ff 	movss  -0xec(%rbp),%xmm0
     d69:	ff 
     d6a:	f3 0f 5a c8          	cvtss2sd %xmm0,%xmm1
     d6e:	f3 0f 5a 85 3c ff ff 	cvtss2sd -0xc4(%rbp),%xmm0
     d75:	ff 
     d76:	bf 00 00 00 00       	mov    $0x0,%edi
     d7b:	b8 02 00 00 00       	mov    $0x2,%eax
     d80:	e8 00 00 00 00       	callq  d85 <try_place+0xd85>
     d85:	bf 01 00 00 00       	mov    $0x1,%edi
     d8a:	e8 00 00 00 00       	callq  d8f <try_place+0xd8f>
     d8f:	8b 85 3c ff ff ff    	mov    -0xc4(%rbp),%eax
     d95:	89 85 14 ff ff ff    	mov    %eax,-0xec(%rbp)
     d9b:	8b 45 10             	mov    0x10(%rbp),%eax
     d9e:	83 f8 01             	cmp    $0x1,%eax
     da1:	74 0c                	je     daf <try_place+0xdaf>
     da3:	8b 45 10             	mov    0x10(%rbp),%eax
     da6:	83 f8 02             	cmp    $0x2,%eax
     da9:	0f 85 09 01 00 00    	jne    eb8 <try_place+0xeb8>
     daf:	48 8d 95 08 ff ff ff 	lea    -0xf8(%rbp),%rdx
     db6:	48 8d 85 10 ff ff ff 	lea    -0xf0(%rbp),%rax
     dbd:	48 89 d6             	mov    %rdx,%rsi
     dc0:	48 89 c7             	mov    %rax,%rdi
     dc3:	e8 fa 41 00 00       	callq  4fc2 <comp_td_costs>
     dc8:	f3 0f 10 85 10 ff ff 	movss  -0xf0(%rbp),%xmm0
     dcf:	ff 
     dd0:	f3 0f 10 8d 18 ff ff 	movss  -0xe8(%rbp),%xmm1
     dd7:	ff 
     dd8:	f3 0f 5c c1          	subss  %xmm1,%xmm0
     ddc:	f3 0f 10 0d 00 00 00 	movss  0x0(%rip),%xmm1        # de4 <try_place+0xde4>
     de3:	00 
     de4:	0f 54 c1             	andps  %xmm1,%xmm0
     de7:	f3 0f 5a c0          	cvtss2sd %xmm0,%xmm0
     deb:	f3 0f 10 8d 18 ff ff 	movss  -0xe8(%rbp),%xmm1
     df2:	ff 
     df3:	f3 0f 5a c9          	cvtss2sd %xmm1,%xmm1
     df7:	f2 0f 10 15 00 00 00 	movsd  0x0(%rip),%xmm2        # dff <try_place+0xdff>
     dfe:	00 
     dff:	f2 0f 59 ca          	mulsd  %xmm2,%xmm1
     e03:	66 0f 2e c1          	ucomisd %xmm1,%xmm0
     e07:	76 31                	jbe    e3a <try_place+0xe3a>
     e09:	f3 0f 10 85 18 ff ff 	movss  -0xe8(%rbp),%xmm0
     e10:	ff 
     e11:	f3 0f 5a c8          	cvtss2sd %xmm0,%xmm1
     e15:	f3 0f 10 85 10 ff ff 	movss  -0xf0(%rbp),%xmm0
     e1c:	ff 
     e1d:	f3 0f 5a c0          	cvtss2sd %xmm0,%xmm0
     e21:	bf 00 00 00 00       	mov    $0x0,%edi
     e26:	b8 02 00 00 00       	mov    $0x2,%eax
     e2b:	e8 00 00 00 00       	callq  e30 <try_place+0xe30>
     e30:	bf 01 00 00 00       	mov    $0x1,%edi
     e35:	e8 00 00 00 00       	callq  e3a <try_place+0xe3a>
     e3a:	f3 0f 10 85 08 ff ff 	movss  -0xf8(%rbp),%xmm0
     e41:	ff 
     e42:	f3 0f 10 8d 0c ff ff 	movss  -0xf4(%rbp),%xmm1
     e49:	ff 
     e4a:	f3 0f 5c c1          	subss  %xmm1,%xmm0
     e4e:	f3 0f 10 0d 00 00 00 	movss  0x0(%rip),%xmm1        # e56 <try_place+0xe56>
     e55:	00 
     e56:	0f 54 c1             	andps  %xmm1,%xmm0
     e59:	f3 0f 5a c0          	cvtss2sd %xmm0,%xmm0
     e5d:	f3 0f 10 8d 0c ff ff 	movss  -0xf4(%rbp),%xmm1
     e64:	ff 
     e65:	f3 0f 5a c9          	cvtss2sd %xmm1,%xmm1
     e69:	f2 0f 10 15 00 00 00 	movsd  0x0(%rip),%xmm2        # e71 <try_place+0xe71>
     e70:	00 
     e71:	f2 0f 59 ca          	mulsd  %xmm2,%xmm1
     e75:	66 0f 2e c1          	ucomisd %xmm1,%xmm0
     e79:	76 31                	jbe    eac <try_place+0xeac>
     e7b:	f3 0f 10 85 0c ff ff 	movss  -0xf4(%rbp),%xmm0
     e82:	ff 
     e83:	f3 0f 5a c8          	cvtss2sd %xmm0,%xmm1
     e87:	f3 0f 10 85 08 ff ff 	movss  -0xf8(%rbp),%xmm0
     e8e:	ff 
     e8f:	f3 0f 5a c0          	cvtss2sd %xmm0,%xmm0
     e93:	bf 00 00 00 00       	mov    $0x0,%edi
     e98:	b8 02 00 00 00       	mov    $0x2,%eax
     e9d:	e8 00 00 00 00       	callq  ea2 <try_place+0xea2>
     ea2:	bf 01 00 00 00       	mov    $0x1,%edi
     ea7:	e8 00 00 00 00       	callq  eac <try_place+0xeac>
     eac:	8b 85 10 ff ff ff    	mov    -0xf0(%rbp),%eax
     eb2:	89 85 18 ff ff ff    	mov    %eax,-0xe8(%rbp)
     eb8:	8b 45 10             	mov    0x10(%rbp),%eax
     ebb:	85 c0                	test   %eax,%eax
     ebd:	75 0c                	jne    ecb <try_place+0xecb>
     ebf:	8b 85 3c ff ff ff    	mov    -0xc4(%rbp),%eax
     ec5:	89 85 1c ff ff ff    	mov    %eax,-0xe4(%rbp)
     ecb:	c7 45 bc 00 00 00 00 	movl   $0x0,-0x44(%rbp)
     ed2:	8b 45 c0             	mov    -0x40(%rbp),%eax
     ed5:	01 45 cc             	add    %eax,-0x34(%rbp)
     ed8:	66 0f ef c0          	pxor   %xmm0,%xmm0
     edc:	f3 0f 2a 45 c4       	cvtsi2ssl -0x3c(%rbp),%xmm0
     ee1:	66 0f ef c9          	pxor   %xmm1,%xmm1
     ee5:	f3 0f 2a 4d c0       	cvtsi2ssl -0x40(%rbp),%xmm1
     eea:	f3 0f 5e c1          	divss  %xmm1,%xmm0
     eee:	66 0f 7e c0          	movd   %xmm0,%eax
     ef2:	89 85 38 ff ff ff    	mov    %eax,-0xc8(%rbp)
     ef8:	83 7d c4 00          	cmpl   $0x0,-0x3c(%rbp)
     efc:	75 46                	jne    f44 <try_place+0xf44>
     efe:	f3 0f 10 85 1c ff ff 	movss  -0xe4(%rbp),%xmm0
     f05:	ff 
     f06:	f3 0f 5a f0          	cvtss2sd %xmm0,%xmm6
     f0a:	f2 0f 11 75 a0       	movsd  %xmm6,-0x60(%rbp)
     f0f:	f3 0f 10 85 14 ff ff 	movss  -0xec(%rbp),%xmm0
     f16:	ff 
     f17:	f3 0f 5a f8          	cvtss2sd %xmm0,%xmm7
     f1b:	f2 0f 11 7d 98       	movsd  %xmm7,-0x68(%rbp)
     f20:	f3 0f 10 85 18 ff ff 	movss  -0xe8(%rbp),%xmm0
     f27:	ff 
     f28:	f3 0f 5a e8          	cvtss2sd %xmm0,%xmm5
     f2c:	f2 0f 11 6d 90       	movsd  %xmm5,-0x70(%rbp)
     f31:	f3 0f 10 85 0c ff ff 	movss  -0xf4(%rbp),%xmm0
     f38:	ff 
     f39:	f3 0f 5a f0          	cvtss2sd %xmm0,%xmm6
     f3d:	f2 0f 11 75 88       	movsd  %xmm6,-0x78(%rbp)
     f42:	eb 6c                	jmp    fb0 <try_place+0xfb0>
     f44:	66 0f ef c0          	pxor   %xmm0,%xmm0
     f48:	f2 0f 2a 45 c4       	cvtsi2sdl -0x3c(%rbp),%xmm0
     f4d:	f2 0f 10 4d a0       	movsd  -0x60(%rbp),%xmm1
     f52:	f2 0f 5e c8          	divsd  %xmm0,%xmm1
     f56:	66 48 0f 7e c8       	movq   %xmm1,%rax
     f5b:	48 89 45 a0          	mov    %rax,-0x60(%rbp)
     f5f:	66 0f ef c0          	pxor   %xmm0,%xmm0
     f63:	f2 0f 2a 45 c4       	cvtsi2sdl -0x3c(%rbp),%xmm0
     f68:	f2 0f 10 4d 98       	movsd  -0x68(%rbp),%xmm1
     f6d:	f2 0f 5e c8          	divsd  %xmm0,%xmm1
     f71:	66 48 0f 7e c8       	movq   %xmm1,%rax
     f76:	48 89 45 98          	mov    %rax,-0x68(%rbp)
     f7a:	66 0f ef c0          	pxor   %xmm0,%xmm0
     f7e:	f2 0f 2a 45 c4       	cvtsi2sdl -0x3c(%rbp),%xmm0
     f83:	f2 0f 10 4d 90       	movsd  -0x70(%rbp),%xmm1
     f88:	f2 0f 5e c8          	divsd  %xmm0,%xmm1
     f8c:	66 48 0f 7e c8       	movq   %xmm1,%rax
     f91:	48 89 45 90          	mov    %rax,-0x70(%rbp)
     f95:	66 0f ef c0          	pxor   %xmm0,%xmm0
     f99:	f2 0f 2a 45 c4       	cvtsi2sdl -0x3c(%rbp),%xmm0
     f9e:	f2 0f 10 4d 88       	movsd  -0x78(%rbp),%xmm1
     fa3:	f2 0f 5e c8          	divsd  %xmm0,%xmm1
     fa7:	66 48 0f 7e c8       	movq   %xmm1,%rax
     fac:	48 89 45 88          	mov    %rax,-0x78(%rbp)
     fb0:	48 8b 4d a0          	mov    -0x60(%rbp),%rcx
     fb4:	48 8b 55 80          	mov    -0x80(%rbp),%rdx
     fb8:	8b 45 c4             	mov    -0x3c(%rbp),%eax
     fbb:	48 89 8d 80 fd ff ff 	mov    %rcx,-0x280(%rbp)
     fc2:	f2 0f 10 8d 80 fd ff 	movsd  -0x280(%rbp),%xmm1
     fc9:	ff 
     fca:	48 89 95 80 fd ff ff 	mov    %rdx,-0x280(%rbp)
     fd1:	f2 0f 10 85 80 fd ff 	movsd  -0x280(%rbp),%xmm0
     fd8:	ff 
     fd9:	89 c7                	mov    %eax,%edi
     fdb:	e8 92 0e 00 00       	callq  1e72 <get_std_dev>
     fe0:	66 48 0f 7e c0       	movq   %xmm0,%rax
     fe5:	48 89 85 30 ff ff ff 	mov    %rax,-0xd0(%rbp)
     fec:	f3 0f 5a bd 60 ff ff 	cvtss2sd -0xa0(%rbp),%xmm7
     ff3:	ff 
     ff4:	66 48 0f 7e fa       	movq   %xmm7,%rdx
     ff9:	f3 0f 10 85 20 ff ff 	movss  -0xe0(%rbp),%xmm0
    1000:	ff 
    1001:	f3 0f 5a e8          	cvtss2sd %xmm0,%xmm5
    1005:	66 48 0f 7e e8       	movq   %xmm5,%rax
    100a:	f3 0f 5a 9d 38 ff ff 	cvtss2sd -0xc8(%rbp),%xmm3
    1011:	ff 
    1012:	f3 0f 5a 55 b8       	cvtss2sd -0x48(%rbp),%xmm2
    1017:	f3 0f 5a 4d b4       	cvtss2sd -0x4c(%rbp),%xmm1
    101c:	f3 0f 10 85 24 ff ff 	movss  -0xdc(%rbp),%xmm0
    1023:	ff 
    1024:	f3 0f 5a c0          	cvtss2sd %xmm0,%xmm0
    1028:	48 83 ec 08          	sub    $0x8,%rsp
    102c:	8b 4d cc             	mov    -0x34(%rbp),%ecx
    102f:	4c 8b 55 88          	mov    -0x78(%rbp),%r10
    1033:	4c 8b 4d 90          	mov    -0x70(%rbp),%r9
    1037:	4c 8b 45 98          	mov    -0x68(%rbp),%r8
    103b:	48 8b 7d a0          	mov    -0x60(%rbp),%rdi
    103f:	52                   	push   %rdx
    1040:	50                   	push   %rax
    1041:	ff b5 30 ff ff ff    	pushq  -0xd0(%rbp)
    1047:	89 ce                	mov    %ecx,%esi
    1049:	66 0f 28 fb          	movapd %xmm3,%xmm7
    104d:	66 0f 28 f2          	movapd %xmm2,%xmm6
    1051:	66 0f 28 e9          	movapd %xmm1,%xmm5
    1055:	4c 89 95 80 fd ff ff 	mov    %r10,-0x280(%rbp)
    105c:	f2 0f 10 a5 80 fd ff 	movsd  -0x280(%rbp),%xmm4
    1063:	ff 
    1064:	4c 89 8d 80 fd ff ff 	mov    %r9,-0x280(%rbp)
    106b:	f2 0f 10 9d 80 fd ff 	movsd  -0x280(%rbp),%xmm3
    1072:	ff 
    1073:	4c 89 85 80 fd ff ff 	mov    %r8,-0x280(%rbp)
    107a:	f2 0f 10 95 80 fd ff 	movsd  -0x280(%rbp),%xmm2
    1081:	ff 
    1082:	48 89 bd 80 fd ff ff 	mov    %rdi,-0x280(%rbp)
    1089:	f2 0f 10 8d 80 fd ff 	movsd  -0x280(%rbp),%xmm1
    1090:	ff 
    1091:	bf 00 00 00 00       	mov    $0x0,%edi
    1096:	b8 08 00 00 00       	mov    $0x8,%eax
    109b:	e8 00 00 00 00       	callq  10a0 <try_place+0x10a0>
    10a0:	48 83 c4 20          	add    $0x20,%rsp
    10a4:	8b 85 24 ff ff ff    	mov    -0xdc(%rbp),%eax
    10aa:	89 85 2c ff ff ff    	mov    %eax,-0xd4(%rbp)
    10b0:	8b b5 20 ff ff ff    	mov    -0xe0(%rbp),%esi
    10b6:	f2 0f 5a 85 30 ff ff 	cvtsd2ss -0xd0(%rbp),%xmm0
    10bd:	ff 
    10be:	48 83 ec 08          	sub    $0x8,%rsp
    10c2:	8b bd 38 ff ff ff    	mov    -0xc8(%rbp),%edi
    10c8:	48 8d 95 24 ff ff ff 	lea    -0xdc(%rbp),%rdx
    10cf:	48 83 ec 18          	sub    $0x18,%rsp
    10d3:	48 89 e0             	mov    %rsp,%rax
    10d6:	48 8b 4d 58          	mov    0x58(%rbp),%rcx
    10da:	48 89 08             	mov    %rcx,(%rax)
    10dd:	48 8b 4d 60          	mov    0x60(%rbp),%rcx
    10e1:	48 89 48 08          	mov    %rcx,0x8(%rax)
    10e5:	8b 4d 68             	mov    0x68(%rbp),%ecx
    10e8:	89 48 10             	mov    %ecx,0x10(%rax)
    10eb:	89 bd 80 fd ff ff    	mov    %edi,-0x280(%rbp)
    10f1:	f3 0f 10 95 80 fd ff 	movss  -0x280(%rbp),%xmm2
    10f8:	ff 
    10f9:	89 b5 80 fd ff ff    	mov    %esi,-0x280(%rbp)
    10ff:	f3 0f 10 8d 80 fd ff 	movss  -0x280(%rbp),%xmm1
    1106:	ff 
    1107:	48 89 d7             	mov    %rdx,%rdi
    110a:	e8 ae 0e 00 00       	callq  1fbd <update_t>
    110f:	48 83 c4 20          	add    $0x20,%rsp
    1113:	f3 0f 10 85 24 ff ff 	movss  -0xdc(%rbp),%xmm0
    111a:	ff 
    111b:	f3 0f 5e 85 2c ff ff 	divss  -0xd4(%rbp),%xmm0
    1122:	ff 
    1123:	f3 0f 5a c0          	cvtss2sd %xmm0,%xmm0
    1127:	bf 00 00 00 00       	mov    $0x0,%edi
    112c:	b8 01 00 00 00       	mov    $0x1,%eax
    1131:	e8 00 00 00 00       	callq  1136 <try_place+0x1136>
    1136:	f3 0f 5a 65 b8       	cvtss2sd -0x48(%rbp),%xmm4
    113b:	f3 0f 10 85 24 ff ff 	movss  -0xdc(%rbp),%xmm0
    1142:	ff 
    1143:	f3 0f 5a d8          	cvtss2sd %xmm0,%xmm3
    1147:	f3 0f 10 85 18 ff ff 	movss  -0xe8(%rbp),%xmm0
    114e:	ff 
    114f:	f3 0f 5a d0          	cvtss2sd %xmm0,%xmm2
    1153:	f3 0f 10 85 14 ff ff 	movss  -0xec(%rbp),%xmm0
    115a:	ff 
    115b:	f3 0f 5a c8          	cvtss2sd %xmm0,%xmm1
    115f:	f3 0f 10 85 1c ff ff 	movss  -0xe4(%rbp),%xmm0
    1166:	ff 
    1167:	f3 0f 5a c0          	cvtss2sd %xmm0,%xmm0
    116b:	48 8d 85 c0 fd ff ff 	lea    -0x240(%rbp),%rax
    1172:	be 00 00 00 00       	mov    $0x0,%esi
    1177:	48 89 c7             	mov    %rax,%rdi
    117a:	b8 05 00 00 00       	mov    $0x5,%eax
    117f:	e8 00 00 00 00       	callq  1184 <try_place+0x1184>
    1184:	48 8d 85 c0 fd ff ff 	lea    -0x240(%rbp),%rax
    118b:	b9 00 00 00 00       	mov    $0x0,%ecx
    1190:	ba 01 00 00 00       	mov    $0x1,%edx
    1195:	48 89 c6             	mov    %rax,%rsi
    1198:	bf 00 00 00 00       	mov    $0x0,%edi
    119d:	e8 00 00 00 00       	callq  11a2 <try_place+0x11a2>
    11a2:	8b 95 38 ff ff ff    	mov    -0xc8(%rbp),%edx
    11a8:	48 8d 85 20 ff ff ff 	lea    -0xe0(%rbp),%rax
    11af:	89 95 80 fd ff ff    	mov    %edx,-0x280(%rbp)
    11b5:	f3 0f 10 85 80 fd ff 	movss  -0x280(%rbp),%xmm0
    11bc:	ff 
    11bd:	48 89 c7             	mov    %rax,%rdi
    11c0:	e8 52 0d 00 00       	callq  1f17 <update_rlim>
    11c5:	8b 45 10             	mov    0x10(%rbp),%eax
    11c8:	83 f8 01             	cmp    $0x1,%eax
    11cb:	74 08                	je     11d5 <try_place+0x11d5>
    11cd:	8b 45 10             	mov    0x10(%rbp),%eax
    11d0:	83 f8 02             	cmp    $0x2,%eax
    11d3:	75 49                	jne    121e <try_place+0x121e>
    11d5:	f3 0f 10 85 20 ff ff 	movss  -0xe0(%rbp),%xmm0
    11dc:	ff 
    11dd:	f3 0f 5c 85 44 ff ff 	subss  -0xbc(%rbp),%xmm0
    11e4:	ff 
    11e5:	f3 0f 59 85 40 ff ff 	mulss  -0xc0(%rbp),%xmm0
    11ec:	ff 
    11ed:	f3 0f 10 0d 00 00 00 	movss  0x0(%rip),%xmm1        # 11f5 <try_place+0x11f5>
    11f4:	00 
    11f5:	f3 0f 5c c8          	subss  %xmm0,%xmm1
    11f9:	f3 0f 10 45 54       	movss  0x54(%rbp),%xmm0
    11fe:	f3 0f 10 55 4c       	movss  0x4c(%rbp),%xmm2
    1203:	f3 0f 5c c2          	subss  %xmm2,%xmm0
    1207:	f3 0f 59 c1          	mulss  %xmm1,%xmm0
    120b:	f3 0f 10 4d 4c       	movss  0x4c(%rbp),%xmm1
    1210:	f3 0f 58 c1          	addss  %xmm1,%xmm0
    1214:	66 0f 7e c0          	movd   %xmm0,%eax
    1218:	89 85 60 ff ff ff    	mov    %eax,-0xa0(%rbp)
    121e:	8b b5 1c ff ff ff    	mov    -0xe4(%rbp),%esi
    1224:	8b 95 24 ff ff ff    	mov    -0xdc(%rbp),%edx
    122a:	48 83 ec 08          	sub    $0x8,%rsp
    122e:	48 83 ec 18          	sub    $0x18,%rsp
    1232:	48 89 e0             	mov    %rsp,%rax
    1235:	48 8b 4d 58          	mov    0x58(%rbp),%rcx
    1239:	48 89 08             	mov    %rcx,(%rax)
    123c:	48 8b 4d 60          	mov    0x60(%rbp),%rcx
    1240:	48 89 48 08          	mov    %rcx,0x8(%rax)
    1244:	8b 4d 68             	mov    0x68(%rbp),%ecx
    1247:	89 48 10             	mov    %ecx,0x10(%rax)
    124a:	89 b5 80 fd ff ff    	mov    %esi,-0x280(%rbp)
    1250:	f3 0f 10 8d 80 fd ff 	movss  -0x280(%rbp),%xmm1
    1257:	ff 
    1258:	89 95 80 fd ff ff    	mov    %edx,-0x280(%rbp)
    125e:	f3 0f 10 85 80 fd ff 	movss  -0x280(%rbp),%xmm0
    1265:	ff 
    1266:	e8 6b 0e 00 00       	callq  20d6 <exit_crit>
    126b:	48 83 c4 20          	add    $0x20,%rsp
    126f:	85 c0                	test   %eax,%eax
    1271:	0f 84 1e f6 ff ff    	je     895 <try_place+0x895>
    1277:	8b 05 00 00 00 00    	mov    0x0(%rip),%eax        # 127d <try_place+0x127d>
    127d:	89 85 24 ff ff ff    	mov    %eax,-0xdc(%rbp)
    1283:	b8 00 00 00 00       	mov    $0x0,%eax
    1288:	48 89 45 a0          	mov    %rax,-0x60(%rbp)
    128c:	b8 00 00 00 00       	mov    $0x0,%eax
    1291:	48 89 45 98          	mov    %rax,-0x68(%rbp)
    1295:	b8 00 00 00 00       	mov    $0x0,%eax
    129a:	48 89 45 90          	mov    %rax,-0x70(%rbp)
    129e:	b8 00 00 00 00       	mov    $0x0,%eax
    12a3:	48 89 45 80          	mov    %rax,-0x80(%rbp)
    12a7:	b8 00 00 00 00       	mov    $0x0,%eax
    12ac:	48 89 45 88          	mov    %rax,-0x78(%rbp)
    12b0:	c7 45 c4 00 00 00 00 	movl   $0x0,-0x3c(%rbp)
    12b7:	8b 45 10             	mov    0x10(%rbp),%eax
    12ba:	83 f8 01             	cmp    $0x1,%eax
    12bd:	74 0c                	je     12cb <try_place+0x12cb>
    12bf:	8b 45 10             	mov    0x10(%rbp),%eax
    12c2:	83 f8 02             	cmp    $0x2,%eax
    12c5:	0f 85 3d 01 00 00    	jne    1408 <try_place+0x1408>
    12cb:	8b 45 40             	mov    0x40(%rbp),%eax
    12ce:	3b 85 6c ff ff ff    	cmp    -0x94(%rbp),%eax
    12d4:	7e 0b                	jle    12e1 <try_place+0x12e1>
    12d6:	8b 45 48             	mov    0x48(%rbp),%eax
    12d9:	85 c0                	test   %eax,%eax
    12db:	0f 84 ea 00 00 00    	je     13cb <try_place+0x13cb>
    12e1:	f3 0f 10 8d 0c ff ff 	movss  -0xf4(%rbp),%xmm1
    12e8:	ff 
    12e9:	66 0f ef c0          	pxor   %xmm0,%xmm0
    12ed:	f3 0f 2a 85 78 ff ff 	cvtsi2ssl -0x88(%rbp),%xmm0
    12f4:	ff 
    12f5:	f3 0f 5e c8          	divss  %xmm0,%xmm1
    12f9:	66 0f 7e c8          	movd   %xmm1,%eax
    12fd:	89 45 b4             	mov    %eax,-0x4c(%rbp)
    1300:	8b 45 10             	mov    0x10(%rbp),%eax
    1303:	83 f8 01             	cmp    $0x1,%eax
    1306:	75 20                	jne    1328 <try_place+0x1328>
    1308:	48 8b 85 b0 fd ff ff 	mov    -0x250(%rbp),%rax
    130f:	8b 55 b4             	mov    -0x4c(%rbp),%edx
    1312:	89 95 80 fd ff ff    	mov    %edx,-0x280(%rbp)
    1318:	f3 0f 10 85 80 fd ff 	movss  -0x280(%rbp),%xmm0
    131f:	ff 
    1320:	48 89 c7             	mov    %rax,%rdi
    1323:	e8 00 00 00 00       	callq  1328 <try_place+0x1328>
    1328:	48 8b 85 b0 fd ff ff 	mov    -0x250(%rbp),%rax
    132f:	48 89 c7             	mov    %rax,%rdi
    1332:	e8 00 00 00 00       	callq  1337 <try_place+0x1337>
    1337:	48 8b 85 b8 fd ff ff 	mov    -0x248(%rbp),%rax
    133e:	66 0f ef c0          	pxor   %xmm0,%xmm0
    1342:	48 89 c7             	mov    %rax,%rdi
    1345:	e8 00 00 00 00       	callq  134a <try_place+0x134a>
    134a:	66 0f 7e c0          	movd   %xmm0,%eax
    134e:	89 45 b8             	mov    %eax,-0x48(%rbp)
    1351:	48 8b 85 b8 fd ff ff 	mov    -0x248(%rbp),%rax
    1358:	48 83 ec 08          	sub    $0x8,%rsp
    135c:	8b 8d 60 ff ff ff    	mov    -0xa0(%rbp),%ecx
    1362:	8b 55 b8             	mov    -0x48(%rbp),%edx
    1365:	ff 75 50             	pushq  0x50(%rbp)
    1368:	ff 75 48             	pushq  0x48(%rbp)
    136b:	ff 75 40             	pushq  0x40(%rbp)
    136e:	ff 75 38             	pushq  0x38(%rbp)
    1371:	ff 75 30             	pushq  0x30(%rbp)
    1374:	ff 75 28             	pushq  0x28(%rbp)
    1377:	ff 75 20             	pushq  0x20(%rbp)
    137a:	ff 75 18             	pushq  0x18(%rbp)
    137d:	ff 75 10             	pushq  0x10(%rbp)
    1380:	89 8d 80 fd ff ff    	mov    %ecx,-0x280(%rbp)
    1386:	f3 0f 10 8d 80 fd ff 	movss  -0x280(%rbp),%xmm1
    138d:	ff 
    138e:	89 95 80 fd ff ff    	mov    %edx,-0x280(%rbp)
    1394:	f3 0f 10 85 80 fd ff 	movss  -0x280(%rbp),%xmm0
    139b:	ff 
    139c:	48 89 c7             	mov    %rax,%rdi
    139f:	e8 00 00 00 00       	callq  13a4 <try_place+0x13a4>
    13a4:	48 83 c4 50          	add    $0x50,%rsp
    13a8:	48 8d 95 0c ff ff ff 	lea    -0xf4(%rbp),%rdx
    13af:	48 8d 85 18 ff ff ff 	lea    -0xe8(%rbp),%rax
    13b6:	48 89 d6             	mov    %rdx,%rsi
    13b9:	48 89 c7             	mov    %rax,%rdi
    13bc:	e8 01 3c 00 00       	callq  4fc2 <comp_td_costs>
    13c1:	c7 85 6c ff ff ff 00 	movl   $0x0,-0x94(%rbp)
    13c8:	00 00 00 
    13cb:	83 85 6c ff ff ff 01 	addl   $0x1,-0x94(%rbp)
    13d2:	f3 0f 10 8d 14 ff ff 	movss  -0xec(%rbp),%xmm1
    13d9:	ff 
    13da:	f3 0f 10 05 00 00 00 	movss  0x0(%rip),%xmm0        # 13e2 <try_place+0x13e2>
    13e1:	00 
    13e2:	f3 0f 5e c1          	divss  %xmm1,%xmm0
    13e6:	66 0f 7e c0          	movd   %xmm0,%eax
    13ea:	89 45 b0             	mov    %eax,-0x50(%rbp)
    13ed:	f3 0f 10 8d 18 ff ff 	movss  -0xe8(%rbp),%xmm1
    13f4:	ff 
    13f5:	f3 0f 10 05 00 00 00 	movss  0x0(%rip),%xmm0        # 13fd <try_place+0x13fd>
    13fc:	00 
    13fd:	f3 0f 5e c1          	divss  %xmm1,%xmm0
    1401:	66 0f 7e c0          	movd   %xmm0,%eax
    1405:	89 45 ac             	mov    %eax,-0x54(%rbp)
    1408:	c7 85 68 ff ff ff 01 	movl   $0x1,-0x98(%rbp)
    140f:	00 00 00 
    1412:	c7 45 c8 00 00 00 00 	movl   $0x0,-0x38(%rbp)
    1419:	e9 9d 02 00 00       	jmpq   16bb <try_place+0x16bb>
    141e:	44 8b 65 14          	mov    0x14(%rbp),%r12d
    1422:	44 8b 45 10          	mov    0x10(%rbp),%r8d
    1426:	8b 4d 3c             	mov    0x3c(%rbp),%ecx
    1429:	48 8b 9d f8 fe ff ff 	mov    -0x108(%rbp),%rbx
    1430:	4c 8b 9d 00 ff ff ff 	mov    -0x100(%rbp),%r11
    1437:	8b 45 1c             	mov    0x1c(%rbp),%eax
    143a:	41 89 c7             	mov    %eax,%r15d
    143d:	44 8b 95 20 ff ff ff 	mov    -0xe0(%rbp),%r10d
    1444:	8b 85 24 ff ff ff    	mov    -0xdc(%rbp),%eax
    144a:	48 83 ec 08          	sub    $0x8,%rsp
    144e:	44 8b 75 ac          	mov    -0x54(%rbp),%r14d
    1452:	44 8b 6d b0          	mov    -0x50(%rbp),%r13d
    1456:	48 8d 95 18 ff ff ff 	lea    -0xe8(%rbp),%rdx
    145d:	48 8d b5 14 ff ff ff 	lea    -0xec(%rbp),%rsi
    1464:	48 8d bd 1c ff ff ff 	lea    -0xe4(%rbp),%rdi
    146b:	ff b5 50 ff ff ff    	pushq  -0xb0(%rbp)
    1471:	4c 8d 8d 0c ff ff ff 	lea    -0xf4(%rbp),%r9
    1478:	41 51                	push   %r9
    147a:	41 50                	push   %r8
    147c:	44 8b 85 7c ff ff ff 	mov    -0x84(%rbp),%r8d
    1483:	41 50                	push   %r8
    1485:	51                   	push   %rcx
    1486:	44 89 b5 80 fd ff ff 	mov    %r14d,-0x280(%rbp)
    148d:	f3 0f 10 a5 80 fd ff 	movss  -0x280(%rbp),%xmm4
    1494:	ff 
    1495:	44 89 ad 80 fd ff ff 	mov    %r13d,-0x280(%rbp)
    149c:	f3 0f 10 9d 80 fd ff 	movss  -0x280(%rbp),%xmm3
    14a3:	ff 
    14a4:	44 89 a5 80 fd ff ff 	mov    %r12d,-0x280(%rbp)
    14ab:	f3 0f 10 95 80 fd ff 	movss  -0x280(%rbp),%xmm2
    14b2:	ff 
    14b3:	49 89 d9             	mov    %rbx,%r9
    14b6:	4d 89 d8             	mov    %r11,%r8
    14b9:	44 89 f9             	mov    %r15d,%ecx
    14bc:	44 89 95 80 fd ff ff 	mov    %r10d,-0x280(%rbp)
    14c3:	f3 0f 10 8d 80 fd ff 	movss  -0x280(%rbp),%xmm1
    14ca:	ff 
    14cb:	89 85 80 fd ff ff    	mov    %eax,-0x280(%rbp)
    14d1:	f3 0f 10 85 80 fd ff 	movss  -0x280(%rbp),%xmm0
    14d8:	ff 
    14d9:	e8 a2 0e 00 00       	callq  2380 <try_swap>
    14de:	48 83 c4 30          	add    $0x30,%rsp
    14e2:	83 f8 01             	cmp    $0x1,%eax
    14e5:	0f 85 cc 01 00 00    	jne    16b7 <try_place+0x16b7>
    14eb:	83 45 c4 01          	addl   $0x1,-0x3c(%rbp)
    14ef:	f3 0f 10 85 1c ff ff 	movss  -0xe4(%rbp),%xmm0
    14f6:	ff 
    14f7:	f3 0f 5a c0          	cvtss2sd %xmm0,%xmm0
    14fb:	f2 0f 10 4d a0       	movsd  -0x60(%rbp),%xmm1
    1500:	f2 0f 58 c8          	addsd  %xmm0,%xmm1
    1504:	66 48 0f 7e c8       	movq   %xmm1,%rax
    1509:	48 89 45 a0          	mov    %rax,-0x60(%rbp)
    150d:	f3 0f 10 85 14 ff ff 	movss  -0xec(%rbp),%xmm0
    1514:	ff 
    1515:	f3 0f 5a c0          	cvtss2sd %xmm0,%xmm0
    1519:	f2 0f 10 4d 98       	movsd  -0x68(%rbp),%xmm1
    151e:	f2 0f 58 c8          	addsd  %xmm0,%xmm1
    1522:	66 48 0f 7e c8       	movq   %xmm1,%rax
    1527:	48 89 45 98          	mov    %rax,-0x68(%rbp)
    152b:	f3 0f 10 85 0c ff ff 	movss  -0xf4(%rbp),%xmm0
    1532:	ff 
    1533:	f3 0f 5a c0          	cvtss2sd %xmm0,%xmm0
    1537:	f2 0f 10 4d 88       	movsd  -0x78(%rbp),%xmm1
    153c:	f2 0f 58 c8          	addsd  %xmm0,%xmm1
    1540:	66 48 0f 7e c8       	movq   %xmm1,%rax
    1545:	48 89 45 88          	mov    %rax,-0x78(%rbp)
    1549:	f3 0f 10 85 18 ff ff 	movss  -0xe8(%rbp),%xmm0
    1550:	ff 
    1551:	f3 0f 5a c0          	cvtss2sd %xmm0,%xmm0
    1555:	f2 0f 10 4d 90       	movsd  -0x70(%rbp),%xmm1
    155a:	f2 0f 58 c8          	addsd  %xmm0,%xmm1
    155e:	66 48 0f 7e c8       	movq   %xmm1,%rax
    1563:	48 89 45 90          	mov    %rax,-0x70(%rbp)
    1567:	f3 0f 10 8d 1c ff ff 	movss  -0xe4(%rbp),%xmm1
    156e:	ff 
    156f:	f3 0f 10 85 1c ff ff 	movss  -0xe4(%rbp),%xmm0
    1576:	ff 
    1577:	f3 0f 59 c1          	mulss  %xmm1,%xmm0
    157b:	f3 0f 5a c0          	cvtss2sd %xmm0,%xmm0
    157f:	f2 0f 10 4d 80       	movsd  -0x80(%rbp),%xmm1
    1584:	f2 0f 58 c8          	addsd  %xmm0,%xmm1
    1588:	66 48 0f 7e c8       	movq   %xmm1,%rax
    158d:	48 89 45 80          	mov    %rax,-0x80(%rbp)
    1591:	8b 45 10             	mov    0x10(%rbp),%eax
    1594:	83 f8 01             	cmp    $0x1,%eax
    1597:	74 0c                	je     15a5 <try_place+0x15a5>
    1599:	8b 45 10             	mov    0x10(%rbp),%eax
    159c:	83 f8 02             	cmp    $0x2,%eax
    159f:	0f 85 12 01 00 00    	jne    16b7 <try_place+0x16b7>
    15a5:	8b 85 68 ff ff ff    	mov    -0x98(%rbp),%eax
    15ab:	3b 85 64 ff ff ff    	cmp    -0x9c(%rbp),%eax
    15b1:	0f 8c f9 00 00 00    	jl     16b0 <try_place+0x16b0>
    15b7:	8b 45 c0             	mov    -0x40(%rbp),%eax
    15ba:	83 e8 01             	sub    $0x1,%eax
    15bd:	3b 45 c8             	cmp    -0x38(%rbp),%eax
    15c0:	0f 84 ea 00 00 00    	je     16b0 <try_place+0x16b0>
    15c6:	c7 85 68 ff ff ff 00 	movl   $0x0,-0x98(%rbp)
    15cd:	00 00 00 
    15d0:	8b 45 10             	mov    0x10(%rbp),%eax
    15d3:	83 f8 01             	cmp    $0x1,%eax
    15d6:	75 3f                	jne    1617 <try_place+0x1617>
    15d8:	f3 0f 10 8d 0c ff ff 	movss  -0xf4(%rbp),%xmm1
    15df:	ff 
    15e0:	66 0f ef c0          	pxor   %xmm0,%xmm0
    15e4:	f3 0f 2a 85 78 ff ff 	cvtsi2ssl -0x88(%rbp),%xmm0
    15eb:	ff 
    15ec:	f3 0f 5e c8          	divss  %xmm0,%xmm1
    15f0:	66 0f 7e c8          	movd   %xmm1,%eax
    15f4:	89 45 b4             	mov    %eax,-0x4c(%rbp)
    15f7:	48 8b 85 b0 fd ff ff 	mov    -0x250(%rbp),%rax
    15fe:	8b 55 b4             	mov    -0x4c(%rbp),%edx
    1601:	89 95 80 fd ff ff    	mov    %edx,-0x280(%rbp)
    1607:	f3 0f 10 85 80 fd ff 	movss  -0x280(%rbp),%xmm0
    160e:	ff 
    160f:	48 89 c7             	mov    %rax,%rdi
    1612:	e8 00 00 00 00       	callq  1617 <try_place+0x1617>
    1617:	48 8b 85 b0 fd ff ff 	mov    -0x250(%rbp),%rax
    161e:	48 89 c7             	mov    %rax,%rdi
    1621:	e8 00 00 00 00       	callq  1626 <try_place+0x1626>
    1626:	48 8b 85 b8 fd ff ff 	mov    -0x248(%rbp),%rax
    162d:	66 0f ef c0          	pxor   %xmm0,%xmm0
    1631:	48 89 c7             	mov    %rax,%rdi
    1634:	e8 00 00 00 00       	callq  1639 <try_place+0x1639>
    1639:	66 0f 7e c0          	movd   %xmm0,%eax
    163d:	89 45 b8             	mov    %eax,-0x48(%rbp)
    1640:	48 8b 85 b8 fd ff ff 	mov    -0x248(%rbp),%rax
    1647:	48 83 ec 08          	sub    $0x8,%rsp
    164b:	8b 8d 60 ff ff ff    	mov    -0xa0(%rbp),%ecx
    1651:	8b 55 b8             	mov    -0x48(%rbp),%edx
    1654:	ff 75 50             	pushq  0x50(%rbp)
    1657:	ff 75 48             	pushq  0x48(%rbp)
    165a:	ff 75 40             	pushq  0x40(%rbp)
    165d:	ff 75 38             	pushq  0x38(%rbp)
    1660:	ff 75 30             	pushq  0x30(%rbp)
    1663:	ff 75 28             	pushq  0x28(%rbp)
    1666:	ff 75 20             	pushq  0x20(%rbp)
    1669:	ff 75 18             	pushq  0x18(%rbp)
    166c:	ff 75 10             	pushq  0x10(%rbp)
    166f:	89 8d 80 fd ff ff    	mov    %ecx,-0x280(%rbp)
    1675:	f3 0f 10 8d 80 fd ff 	movss  -0x280(%rbp),%xmm1
    167c:	ff 
    167d:	89 95 80 fd ff ff    	mov    %edx,-0x280(%rbp)
    1683:	f3 0f 10 85 80 fd ff 	movss  -0x280(%rbp),%xmm0
    168a:	ff 
    168b:	48 89 c7             	mov    %rax,%rdi
    168e:	e8 00 00 00 00       	callq  1693 <try_place+0x1693>
    1693:	48 83 c4 50          	add    $0x50,%rsp
    1697:	48 8d 95 0c ff ff ff 	lea    -0xf4(%rbp),%rdx
    169e:	48 8d 85 18 ff ff ff 	lea    -0xe8(%rbp),%rax
    16a5:	48 89 d6             	mov    %rdx,%rsi
    16a8:	48 89 c7             	mov    %rax,%rdi
    16ab:	e8 12 39 00 00       	callq  4fc2 <comp_td_costs>
    16b0:	83 85 68 ff ff ff 01 	addl   $0x1,-0x98(%rbp)
    16b7:	83 45 c8 01          	addl   $0x1,-0x38(%rbp)
    16bb:	8b 45 c8             	mov    -0x38(%rbp),%eax
    16be:	3b 45 c0             	cmp    -0x40(%rbp),%eax
    16c1:	0f 8c 57 fd ff ff    	jl     141e <try_place+0x141e>
    16c7:	8b 45 c0             	mov    -0x40(%rbp),%eax
    16ca:	01 45 cc             	add    %eax,-0x34(%rbp)
    16cd:	66 0f ef c0          	pxor   %xmm0,%xmm0
    16d1:	f3 0f 2a 45 c4       	cvtsi2ssl -0x3c(%rbp),%xmm0
    16d6:	66 0f ef c9          	pxor   %xmm1,%xmm1
    16da:	f3 0f 2a 4d c0       	cvtsi2ssl -0x40(%rbp),%xmm1
    16df:	f3 0f 5e c1          	divss  %xmm1,%xmm0
    16e3:	66 0f 7e c0          	movd   %xmm0,%eax
    16e7:	89 85 38 ff ff ff    	mov    %eax,-0xc8(%rbp)
    16ed:	83 7d c4 00          	cmpl   $0x0,-0x3c(%rbp)
    16f1:	75 46                	jne    1739 <try_place+0x1739>
    16f3:	f3 0f 10 85 1c ff ff 	movss  -0xe4(%rbp),%xmm0
    16fa:	ff 
    16fb:	f3 0f 5a f0          	cvtss2sd %xmm0,%xmm6
    16ff:	f2 0f 11 75 a0       	movsd  %xmm6,-0x60(%rbp)
    1704:	f3 0f 10 85 14 ff ff 	movss  -0xec(%rbp),%xmm0
    170b:	ff 
    170c:	f3 0f 5a f8          	cvtss2sd %xmm0,%xmm7
    1710:	f2 0f 11 7d 98       	movsd  %xmm7,-0x68(%rbp)
    1715:	f3 0f 10 85 0c ff ff 	movss  -0xf4(%rbp),%xmm0
    171c:	ff 
    171d:	f3 0f 5a e0          	cvtss2sd %xmm0,%xmm4
    1721:	f2 0f 11 65 88       	movsd  %xmm4,-0x78(%rbp)
    1726:	f3 0f 10 85 18 ff ff 	movss  -0xe8(%rbp),%xmm0
    172d:	ff 
    172e:	f3 0f 5a e8          	cvtss2sd %xmm0,%xmm5
    1732:	f2 0f 11 6d 90       	movsd  %xmm5,-0x70(%rbp)
    1737:	eb 6c                	jmp    17a5 <try_place+0x17a5>
    1739:	66 0f ef c0          	pxor   %xmm0,%xmm0
    173d:	f2 0f 2a 45 c4       	cvtsi2sdl -0x3c(%rbp),%xmm0
    1742:	f2 0f 10 4d a0       	movsd  -0x60(%rbp),%xmm1
    1747:	f2 0f 5e c8          	divsd  %xmm0,%xmm1
    174b:	66 48 0f 7e c8       	movq   %xmm1,%rax
    1750:	48 89 45 a0          	mov    %rax,-0x60(%rbp)
    1754:	66 0f ef c0          	pxor   %xmm0,%xmm0
    1758:	f2 0f 2a 45 c4       	cvtsi2sdl -0x3c(%rbp),%xmm0
    175d:	f2 0f 10 4d 98       	movsd  -0x68(%rbp),%xmm1
    1762:	f2 0f 5e c8          	divsd  %xmm0,%xmm1
    1766:	66 48 0f 7e c8       	movq   %xmm1,%rax
    176b:	48 89 45 98          	mov    %rax,-0x68(%rbp)
    176f:	66 0f ef c0          	pxor   %xmm0,%xmm0
    1773:	f2 0f 2a 45 c4       	cvtsi2sdl -0x3c(%rbp),%xmm0
    1778:	f2 0f 10 4d 88       	movsd  -0x78(%rbp),%xmm1
    177d:	f2 0f 5e c8          	divsd  %xmm0,%xmm1
    1781:	66 48 0f 7e c8       	movq   %xmm1,%rax
    1786:	48 89 45 88          	mov    %rax,-0x78(%rbp)
    178a:	66 0f ef c0          	pxor   %xmm0,%xmm0
    178e:	f2 0f 2a 45 c4       	cvtsi2sdl -0x3c(%rbp),%xmm0
    1793:	f2 0f 10 4d 90       	movsd  -0x70(%rbp),%xmm1
    1798:	f2 0f 5e c8          	divsd  %xmm0,%xmm1
    179c:	66 48 0f 7e c8       	movq   %xmm1,%rax
    17a1:	48 89 45 90          	mov    %rax,-0x70(%rbp)
    17a5:	48 8b 4d a0          	mov    -0x60(%rbp),%rcx
    17a9:	48 8b 55 80          	mov    -0x80(%rbp),%rdx
    17ad:	8b 45 c4             	mov    -0x3c(%rbp),%eax
    17b0:	48 89 8d 80 fd ff ff 	mov    %rcx,-0x280(%rbp)
    17b7:	f2 0f 10 8d 80 fd ff 	movsd  -0x280(%rbp),%xmm1
    17be:	ff 
    17bf:	48 89 95 80 fd ff ff 	mov    %rdx,-0x280(%rbp)
    17c6:	f2 0f 10 85 80 fd ff 	movsd  -0x280(%rbp),%xmm0
    17cd:	ff 
    17ce:	89 c7                	mov    %eax,%edi
    17d0:	e8 9d 06 00 00       	callq  1e72 <get_std_dev>
    17d5:	66 48 0f 7e c0       	movq   %xmm0,%rax
    17da:	48 89 85 30 ff ff ff 	mov    %rax,-0xd0(%rbp)
    17e1:	f3 0f 5a b5 60 ff ff 	cvtss2sd -0xa0(%rbp),%xmm6
    17e8:	ff 
    17e9:	66 48 0f 7e f2       	movq   %xmm6,%rdx
    17ee:	f3 0f 10 85 20 ff ff 	movss  -0xe0(%rbp),%xmm0
    17f5:	ff 
    17f6:	f3 0f 5a f8          	cvtss2sd %xmm0,%xmm7
    17fa:	66 48 0f 7e f8       	movq   %xmm7,%rax
    17ff:	f3 0f 5a 9d 38 ff ff 	cvtss2sd -0xc8(%rbp),%xmm3
    1806:	ff 
    1807:	f3 0f 5a 55 b8       	cvtss2sd -0x48(%rbp),%xmm2
    180c:	f3 0f 5a 4d b4       	cvtss2sd -0x4c(%rbp),%xmm1
    1811:	f3 0f 10 85 24 ff ff 	movss  -0xdc(%rbp),%xmm0
    1818:	ff 
    1819:	f3 0f 5a c0          	cvtss2sd %xmm0,%xmm0
    181d:	48 83 ec 08          	sub    $0x8,%rsp
    1821:	8b 4d cc             	mov    -0x34(%rbp),%ecx
    1824:	4c 8b 55 88          	mov    -0x78(%rbp),%r10
    1828:	4c 8b 4d 90          	mov    -0x70(%rbp),%r9
    182c:	4c 8b 45 98          	mov    -0x68(%rbp),%r8
    1830:	48 8b 7d a0          	mov    -0x60(%rbp),%rdi
    1834:	52                   	push   %rdx
    1835:	50                   	push   %rax
    1836:	ff b5 30 ff ff ff    	pushq  -0xd0(%rbp)
    183c:	89 ce                	mov    %ecx,%esi
    183e:	66 0f 28 fb          	movapd %xmm3,%xmm7
    1842:	66 0f 28 f2          	movapd %xmm2,%xmm6
    1846:	66 0f 28 e9          	movapd %xmm1,%xmm5
    184a:	4c 89 95 80 fd ff ff 	mov    %r10,-0x280(%rbp)
    1851:	f2 0f 10 a5 80 fd ff 	movsd  -0x280(%rbp),%xmm4
    1858:	ff 
    1859:	4c 89 8d 80 fd ff ff 	mov    %r9,-0x280(%rbp)
    1860:	f2 0f 10 9d 80 fd ff 	movsd  -0x280(%rbp),%xmm3
    1867:	ff 
    1868:	4c 89 85 80 fd ff ff 	mov    %r8,-0x280(%rbp)
    186f:	f2 0f 10 95 80 fd ff 	movsd  -0x280(%rbp),%xmm2
    1876:	ff 
    1877:	48 89 bd 80 fd ff ff 	mov    %rdi,-0x280(%rbp)
    187e:	f2 0f 10 8d 80 fd ff 	movsd  -0x280(%rbp),%xmm1
    1885:	ff 
    1886:	bf 00 00 00 00       	mov    $0x0,%edi
    188b:	b8 08 00 00 00       	mov    $0x8,%eax
    1890:	e8 00 00 00 00       	callq  1895 <try_place+0x1895>
    1895:	48 83 c4 20          	add    $0x20,%rsp
    1899:	8b b5 0c ff ff ff    	mov    -0xf4(%rbp),%esi
    189f:	8b 55 10             	mov    0x10(%rbp),%edx
    18a2:	8b 4d 3c             	mov    0x3c(%rbp),%ecx
    18a5:	8b 45 1c             	mov    0x1c(%rbp),%eax
    18a8:	89 c7                	mov    %eax,%edi
    18aa:	44 8b 85 18 ff ff ff 	mov    -0xe8(%rbp),%r8d
    18b1:	8b 85 14 ff ff ff    	mov    -0xec(%rbp),%eax
    18b7:	89 b5 80 fd ff ff    	mov    %esi,-0x280(%rbp)
    18bd:	f3 0f 10 95 80 fd ff 	movss  -0x280(%rbp),%xmm2
    18c4:	ff 
    18c5:	89 ce                	mov    %ecx,%esi
    18c7:	44 89 85 80 fd ff ff 	mov    %r8d,-0x280(%rbp)
    18ce:	f3 0f 10 8d 80 fd ff 	movss  -0x280(%rbp),%xmm1
    18d5:	ff 
    18d6:	89 85 80 fd ff ff    	mov    %eax,-0x280(%rbp)
    18dc:	f3 0f 10 85 80 fd ff 	movss  -0x280(%rbp),%xmm0
    18e3:	ff 
    18e4:	e8 4c 77 00 00       	callq  9035 <check_place>
    18e9:	8b 45 44             	mov    0x44(%rbp),%eax
    18ec:	85 c0                	test   %eax,%eax
    18ee:	0f 84 ba 00 00 00    	je     19ae <try_place+0x19ae>
    18f4:	8b 45 10             	mov    0x10(%rbp),%eax
    18f7:	85 c0                	test   %eax,%eax
    18f9:	0f 85 af 00 00 00    	jne    19ae <try_place+0x19ae>
    18ff:	c7 85 74 ff ff ff 00 	movl   $0x0,-0x8c(%rbp)
    1906:	00 00 00 
    1909:	eb 78                	jmp    1983 <try_place+0x1983>
    190b:	c7 85 70 ff ff ff 01 	movl   $0x1,-0x90(%rbp)
    1912:	00 00 00 
    1915:	eb 39                	jmp    1950 <try_place+0x1950>
    1917:	48 8b 05 00 00 00 00 	mov    0x0(%rip),%rax        # 191e <try_place+0x191e>
    191e:	8b 95 74 ff ff ff    	mov    -0x8c(%rbp),%edx
    1924:	48 63 d2             	movslq %edx,%rdx
    1927:	48 c1 e2 03          	shl    $0x3,%rdx
    192b:	48 01 d0             	add    %rdx,%rax
    192e:	48 8b 00             	mov    (%rax),%rax
    1931:	8b 95 70 ff ff ff    	mov    -0x90(%rbp),%edx
    1937:	48 63 d2             	movslq %edx,%rdx
    193a:	48 c1 e2 02          	shl    $0x2,%rdx
    193e:	48 01 c2             	add    %rax,%rdx
    1941:	8b 05 00 00 00 00    	mov    0x0(%rip),%eax        # 1947 <try_place+0x1947>
    1947:	89 02                	mov    %eax,(%rdx)
    1949:	83 85 70 ff ff ff 01 	addl   $0x1,-0x90(%rbp)
    1950:	48 8b 0d 00 00 00 00 	mov    0x0(%rip),%rcx        # 1957 <try_place+0x1957>
    1957:	8b 85 74 ff ff ff    	mov    -0x8c(%rbp),%eax
    195d:	48 63 d0             	movslq %eax,%rdx
    1960:	48 89 d0             	mov    %rdx,%rax
    1963:	48 c1 e0 02          	shl    $0x2,%rax
    1967:	48 01 d0             	add    %rdx,%rax
    196a:	48 c1 e0 03          	shl    $0x3,%rax
    196e:	48 01 c8             	add    %rcx,%rax
    1971:	8b 40 08             	mov    0x8(%rax),%eax
    1974:	3b 85 70 ff ff ff    	cmp    -0x90(%rbp),%eax
    197a:	7d 9b                	jge    1917 <try_place+0x1917>
    197c:	83 85 74 ff ff ff 01 	addl   $0x1,-0x8c(%rbp)
    1983:	8b 05 00 00 00 00    	mov    0x0(%rip),%eax        # 1989 <try_place+0x1989>
    1989:	39 85 74 ff ff ff    	cmp    %eax,-0x8c(%rbp)
    198f:	0f 8c 76 ff ff ff    	jl     190b <try_place+0x190b>
    1995:	48 8d 95 0c ff ff ff 	lea    -0xf4(%rbp),%rdx
    199c:	48 8d 85 18 ff ff ff 	lea    -0xe8(%rbp),%rax
    19a3:	48 89 d6             	mov    %rdx,%rsi
    19a6:	48 89 c7             	mov    %rax,%rdi
    19a9:	e8 14 36 00 00       	callq  4fc2 <comp_td_costs>
    19ae:	8b 45 10             	mov    0x10(%rbp),%eax
    19b1:	83 f8 01             	cmp    $0x1,%eax
    19b4:	74 0f                	je     19c5 <try_place+0x19c5>
    19b6:	8b 45 10             	mov    0x10(%rbp),%eax
    19b9:	83 f8 02             	cmp    $0x2,%eax
    19bc:	74 07                	je     19c5 <try_place+0x19c5>
    19be:	8b 45 44             	mov    0x44(%rbp),%eax
    19c1:	85 c0                	test   %eax,%eax
    19c3:	74 51                	je     1a16 <try_place+0x1a16>
    19c5:	48 8b 05 00 00 00 00 	mov    0x0(%rip),%rax        # 19cc <try_place+0x19cc>
    19cc:	48 89 85 b0 fd ff ff 	mov    %rax,-0x250(%rbp)
    19d3:	48 8b 85 b0 fd ff ff 	mov    -0x250(%rbp),%rax
    19da:	48 89 c7             	mov    %rax,%rdi
    19dd:	e8 00 00 00 00       	callq  19e2 <try_place+0x19e2>
    19e2:	48 8b 85 b8 fd ff ff 	mov    -0x248(%rbp),%rax
    19e9:	66 0f ef c0          	pxor   %xmm0,%xmm0
    19ed:	48 89 c7             	mov    %rax,%rdi
    19f0:	e8 00 00 00 00       	callq  19f5 <try_place+0x19f5>
    19f5:	66 0f 7e c0          	movd   %xmm0,%eax
    19f9:	89 85 28 ff ff ff    	mov    %eax,-0xd8(%rbp)
    19ff:	f3 0f 5a 85 28 ff ff 	cvtss2sd -0xd8(%rbp),%xmm0
    1a06:	ff 
    1a07:	bf 00 00 00 00       	mov    $0x0,%edi
    1a0c:	b8 01 00 00 00       	mov    $0x1,%eax
    1a11:	e8 00 00 00 00       	callq  1a16 <try_place+0x1a16>
    1a16:	f3 0f 5a 5d b8       	cvtss2sd -0x48(%rbp),%xmm3
    1a1b:	f3 0f 10 85 18 ff ff 	movss  -0xe8(%rbp),%xmm0
    1a22:	ff 
    1a23:	f3 0f 5a d0          	cvtss2sd %xmm0,%xmm2
    1a27:	f3 0f 10 85 14 ff ff 	movss  -0xec(%rbp),%xmm0
    1a2e:	ff 
    1a2f:	f3 0f 5a c8          	cvtss2sd %xmm0,%xmm1
    1a33:	f3 0f 10 85 1c ff ff 	movss  -0xe4(%rbp),%xmm0
    1a3a:	ff 
    1a3b:	f3 0f 5a c0          	cvtss2sd %xmm0,%xmm0
    1a3f:	8b 95 4c ff ff ff    	mov    -0xb4(%rbp),%edx
    1a45:	48 8d 85 c0 fd ff ff 	lea    -0x240(%rbp),%rax
    1a4c:	be 00 00 00 00       	mov    $0x0,%esi
    1a51:	48 89 c7             	mov    %rax,%rdi
    1a54:	b8 04 00 00 00       	mov    $0x4,%eax
    1a59:	e8 00 00 00 00       	callq  1a5e <try_place+0x1a5e>
    1a5e:	f3 0f 10 85 0c ff ff 	movss  -0xf4(%rbp),%xmm0
    1a65:	ff 
    1a66:	f3 0f 5a d8          	cvtss2sd %xmm0,%xmm3
    1a6a:	f3 0f 10 85 18 ff ff 	movss  -0xe8(%rbp),%xmm0
    1a71:	ff 
    1a72:	f3 0f 5a d0          	cvtss2sd %xmm0,%xmm2
    1a76:	f3 0f 10 85 14 ff ff 	movss  -0xec(%rbp),%xmm0
    1a7d:	ff 
    1a7e:	f3 0f 5a c8          	cvtss2sd %xmm0,%xmm1
    1a82:	f3 0f 10 85 1c ff ff 	movss  -0xe4(%rbp),%xmm0
    1a89:	ff 
    1a8a:	f3 0f 5a c0          	cvtss2sd %xmm0,%xmm0
    1a8e:	bf 00 00 00 00       	mov    $0x0,%edi
    1a93:	b8 04 00 00 00       	mov    $0x4,%eax
    1a98:	e8 00 00 00 00       	callq  1a9d <try_place+0x1a9d>
    1a9d:	48 8d 85 c0 fd ff ff 	lea    -0x240(%rbp),%rax
    1aa4:	b9 00 00 00 00       	mov    $0x0,%ecx
    1aa9:	ba 01 00 00 00       	mov    $0x1,%edx
    1aae:	48 89 c6             	mov    %rax,%rsi
    1ab1:	bf 01 00 00 00       	mov    $0x1,%edi
    1ab6:	e8 00 00 00 00       	callq  1abb <try_place+0x1abb>
    1abb:	8b 45 10             	mov    0x10(%rbp),%eax
    1abe:	83 f8 01             	cmp    $0x1,%eax
    1ac1:	74 0f                	je     1ad2 <try_place+0x1ad2>
    1ac3:	8b 45 10             	mov    0x10(%rbp),%eax
    1ac6:	83 f8 02             	cmp    $0x2,%eax
    1ac9:	74 07                	je     1ad2 <try_place+0x1ad2>
    1acb:	8b 45 44             	mov    0x44(%rbp),%eax
    1ace:	85 c0                	test   %eax,%eax
    1ad0:	74 67                	je     1b39 <try_place+0x1b39>
    1ad2:	48 8b 85 58 ff ff ff 	mov    -0xa8(%rbp),%rax
    1ad9:	48 89 85 b0 fd ff ff 	mov    %rax,-0x250(%rbp)
    1ae0:	48 8b 8d f8 fe ff ff 	mov    -0x108(%rbp),%rcx
    1ae7:	48 8b 95 00 ff ff ff 	mov    -0x100(%rbp),%rdx
    1aee:	8b 45 3c             	mov    0x3c(%rbp),%eax
    1af1:	8b 75 1c             	mov    0x1c(%rbp),%esi
    1af4:	89 f7                	mov    %esi,%edi
    1af6:	48 83 ec 08          	sub    $0x8,%rsp
    1afa:	ff 75 50             	pushq  0x50(%rbp)
    1afd:	ff 75 48             	pushq  0x48(%rbp)
    1b00:	ff 75 40             	pushq  0x40(%rbp)
    1b03:	ff 75 38             	pushq  0x38(%rbp)
    1b06:	ff 75 30             	pushq  0x30(%rbp)
    1b09:	ff 75 28             	pushq  0x28(%rbp)
    1b0c:	ff 75 20             	pushq  0x20(%rbp)
    1b0f:	ff 75 18             	pushq  0x18(%rbp)
    1b12:	ff 75 10             	pushq  0x10(%rbp)
    1b15:	89 c6                	mov    %eax,%esi
    1b17:	e8 8f 41 00 00       	callq  5cab <free_placement_structs>
    1b1c:	48 83 c4 50          	add    $0x50,%rsp
    1b20:	48 8d 95 b8 fd ff ff 	lea    -0x248(%rbp),%rdx
    1b27:	48 8d 85 b0 fd ff ff 	lea    -0x250(%rbp),%rax
    1b2e:	48 89 d6             	mov    %rdx,%rsi
    1b31:	48 89 c7             	mov    %rax,%rdi
    1b34:	e8 00 00 00 00       	callq  1b39 <try_place+0x1b39>
    1b39:	48 8b 85 88 fd ff ff 	mov    -0x278(%rbp),%rax
    1b40:	48 8b 00             	mov    (%rax),%rax
    1b43:	48 85 c0             	test   %rax,%rax
    1b46:	0f 84 93 00 00 00    	je     1bdf <try_place+0x1bdf>
    1b4c:	c7 85 74 ff ff ff 00 	movl   $0x0,-0x8c(%rbp)
    1b53:	00 00 00 
    1b56:	eb 67                	jmp    1bbf <try_place+0x1bbf>
    1b58:	48 8b 85 88 fd ff ff 	mov    -0x278(%rbp),%rax
    1b5f:	48 8b 00             	mov    (%rax),%rax
    1b62:	8b 95 74 ff ff ff    	mov    -0x8c(%rbp),%edx
    1b68:	48 63 d2             	movslq %edx,%rdx
    1b6b:	48 c1 e2 03          	shl    $0x3,%rdx
    1b6f:	48 01 d0             	add    %rdx,%rax
    1b72:	48 8b 00             	mov    (%rax),%rax
    1b75:	48 85 c0             	test   %rax,%rax
    1b78:	75 19                	jne    1b93 <try_place+0x1b93>
    1b7a:	b9 00 00 00 00       	mov    $0x0,%ecx
    1b7f:	ba c2 03 00 00       	mov    $0x3c2,%edx
    1b84:	be 00 00 00 00       	mov    $0x0,%esi
    1b89:	bf 00 00 00 00       	mov    $0x0,%edi
    1b8e:	e8 00 00 00 00       	callq  1b93 <try_place+0x1b93>
    1b93:	48 8b 85 88 fd ff ff 	mov    -0x278(%rbp),%rax
    1b9a:	48 8b 00             	mov    (%rax),%rax
    1b9d:	8b 95 74 ff ff ff    	mov    -0x8c(%rbp),%edx
    1ba3:	48 63 d2             	movslq %edx,%rdx
    1ba6:	48 c1 e2 03          	shl    $0x3,%rdx
    1baa:	48 01 d0             	add    %rdx,%rax
    1bad:	48 8b 00             	mov    (%rax),%rax
    1bb0:	48 89 c7             	mov    %rax,%rdi
    1bb3:	e8 00 00 00 00       	callq  1bb8 <try_place+0x1bb8>
    1bb8:	83 85 74 ff ff ff 01 	addl   $0x1,-0x8c(%rbp)
    1bbf:	8b 05 00 00 00 00    	mov    0x0(%rip),%eax        # 1bc5 <try_place+0x1bc5>
    1bc5:	39 85 74 ff ff ff    	cmp    %eax,-0x8c(%rbp)
    1bcb:	7c 8b                	jl     1b58 <try_place+0x1b58>
    1bcd:	48 8b 85 88 fd ff ff 	mov    -0x278(%rbp),%rax
    1bd4:	48 8b 00             	mov    (%rax),%rax
    1bd7:	48 89 c7             	mov    %rax,%rdi
    1bda:	e8 00 00 00 00       	callq  1bdf <try_place+0x1bdf>
    1bdf:	8b 05 00 00 00 00    	mov    0x0(%rip),%eax        # 1be5 <try_place+0x1be5>
    1be5:	48 98                	cltq   
    1be7:	48 c1 e0 03          	shl    $0x3,%rax
    1beb:	48 89 c7             	mov    %rax,%rdi
    1bee:	e8 00 00 00 00       	callq  1bf3 <try_place+0x1bf3>
    1bf3:	48 89 c2             	mov    %rax,%rdx
    1bf6:	48 8b 85 88 fd ff ff 	mov    -0x278(%rbp),%rax
    1bfd:	48 89 10             	mov    %rdx,(%rax)
    1c00:	c7 85 74 ff ff ff 00 	movl   $0x0,-0x8c(%rbp)
    1c07:	00 00 00 
    1c0a:	eb 32                	jmp    1c3e <try_place+0x1c3e>
    1c0c:	48 8b 85 88 fd ff ff 	mov    -0x278(%rbp),%rax
    1c13:	48 8b 00             	mov    (%rax),%rax
    1c16:	8b 95 74 ff ff ff    	mov    -0x8c(%rbp),%edx
    1c1c:	48 63 d2             	movslq %edx,%rdx
    1c1f:	48 c1 e2 03          	shl    $0x3,%rdx
    1c23:	48 8d 1c 10          	lea    (%rax,%rdx,1),%rbx
    1c27:	8b 85 74 ff ff ff    	mov    -0x8c(%rbp),%eax
    1c2d:	89 c7                	mov    %eax,%edi
    1c2f:	e8 00 00 00 00       	callq  1c34 <try_place+0x1c34>
    1c34:	48 89 03             	mov    %rax,(%rbx)
    1c37:	83 85 74 ff ff ff 01 	addl   $0x1,-0x8c(%rbp)
    1c3e:	8b 05 00 00 00 00    	mov    0x0(%rip),%eax        # 1c44 <try_place+0x1c44>
    1c44:	39 85 74 ff ff ff    	cmp    %eax,-0x8c(%rbp)
    1c4a:	7c c0                	jl     1c0c <try_place+0x1c0c>
    1c4c:	48 8b 85 50 ff ff ff 	mov    -0xb0(%rbp),%rax
    1c53:	48 89 c7             	mov    %rax,%rdi
    1c56:	e8 00 00 00 00       	callq  1c5b <try_place+0x1c5b>
    1c5b:	48 8d 65 d8          	lea    -0x28(%rbp),%rsp
    1c5f:	5b                   	pop    %rbx
    1c60:	41 5c                	pop    %r12
    1c62:	41 5d                	pop    %r13
    1c64:	41 5e                	pop    %r14
    1c66:	41 5f                	pop    %r15
    1c68:	5d                   	pop    %rbp
    1c69:	c3                   	retq   

0000000000001c6a <count_connections>:
    1c6a:	55                   	push   %rbp
    1c6b:	48 89 e5             	mov    %rsp,%rbp
    1c6e:	c7 45 fc 00 00 00 00 	movl   $0x0,-0x4(%rbp)
    1c75:	c7 45 f8 00 00 00 00 	movl   $0x0,-0x8(%rbp)
    1c7c:	eb 4f                	jmp    1ccd <count_connections+0x63>
    1c7e:	48 8b 0d 00 00 00 00 	mov    0x0(%rip),%rcx        # 1c85 <count_connections+0x1b>
    1c85:	8b 45 f8             	mov    -0x8(%rbp),%eax
    1c88:	48 63 d0             	movslq %eax,%rdx
    1c8b:	48 89 d0             	mov    %rdx,%rax
    1c8e:	48 c1 e0 02          	shl    $0x2,%rax
    1c92:	48 01 d0             	add    %rdx,%rax
    1c95:	48 c1 e0 03          	shl    $0x3,%rax
    1c99:	48 01 c8             	add    %rcx,%rax
    1c9c:	8b 40 20             	mov    0x20(%rax),%eax
    1c9f:	85 c0                	test   %eax,%eax
    1ca1:	74 02                	je     1ca5 <count_connections+0x3b>
    1ca3:	eb 24                	jmp    1cc9 <count_connections+0x5f>
    1ca5:	48 8b 0d 00 00 00 00 	mov    0x0(%rip),%rcx        # 1cac <count_connections+0x42>
    1cac:	8b 45 f8             	mov    -0x8(%rbp),%eax
    1caf:	48 63 d0             	movslq %eax,%rdx
    1cb2:	48 89 d0             	mov    %rdx,%rax
    1cb5:	48 c1 e0 02          	shl    $0x2,%rax
    1cb9:	48 01 d0             	add    %rdx,%rax
    1cbc:	48 c1 e0 03          	shl    $0x3,%rax
    1cc0:	48 01 c8             	add    %rcx,%rax
    1cc3:	8b 40 08             	mov    0x8(%rax),%eax
    1cc6:	01 45 fc             	add    %eax,-0x4(%rbp)
    1cc9:	83 45 f8 01          	addl   $0x1,-0x8(%rbp)
    1ccd:	8b 05 00 00 00 00    	mov    0x0(%rip),%eax        # 1cd3 <count_connections+0x69>
    1cd3:	39 45 f8             	cmp    %eax,-0x8(%rbp)
    1cd6:	7c a6                	jl     1c7e <count_connections+0x14>
    1cd8:	8b 45 fc             	mov    -0x4(%rbp),%eax
    1cdb:	5d                   	pop    %rbp
    1cdc:	c3                   	retq   

0000000000001cdd <compute_net_pin_index_values>:
    1cdd:	55                   	push   %rbp
    1cde:	48 89 e5             	mov    %rsp,%rbp
    1ce1:	c7 45 f4 00 00 00 00 	movl   $0x0,-0xc(%rbp)
    1ce8:	eb 6d                	jmp    1d57 <compute_net_pin_index_values+0x7a>
    1cea:	48 8b 0d 00 00 00 00 	mov    0x0(%rip),%rcx        # 1cf1 <compute_net_pin_index_values+0x14>
    1cf1:	8b 45 f4             	mov    -0xc(%rbp),%eax
    1cf4:	48 63 d0             	movslq %eax,%rdx
    1cf7:	48 89 d0             	mov    %rdx,%rax
    1cfa:	48 c1 e0 02          	shl    $0x2,%rax
    1cfe:	48 01 d0             	add    %rdx,%rax
    1d01:	48 c1 e0 03          	shl    $0x3,%rax
    1d05:	48 01 c8             	add    %rcx,%rax
    1d08:	48 8b 40 08          	mov    0x8(%rax),%rax
    1d0c:	48 89 45 e8          	mov    %rax,-0x18(%rbp)
    1d10:	c7 45 f0 00 00 00 00 	movl   $0x0,-0x10(%rbp)
    1d17:	eb 2e                	jmp    1d47 <compute_net_pin_index_values+0x6a>
    1d19:	48 8b 05 00 00 00 00 	mov    0x0(%rip),%rax        # 1d20 <compute_net_pin_index_values+0x43>
    1d20:	8b 55 f4             	mov    -0xc(%rbp),%edx
    1d23:	48 63 d2             	movslq %edx,%rdx
    1d26:	48 c1 e2 03          	shl    $0x3,%rdx
    1d2a:	48 01 d0             	add    %rdx,%rax
    1d2d:	48 8b 00             	mov    (%rax),%rax
    1d30:	8b 55 f0             	mov    -0x10(%rbp),%edx
    1d33:	48 63 d2             	movslq %edx,%rdx
    1d36:	48 c1 e2 02          	shl    $0x2,%rdx
    1d3a:	48 01 d0             	add    %rdx,%rax
    1d3d:	c7 00 ff ff ff ff    	movl   $0xffffffff,(%rax)
    1d43:	83 45 f0 01          	addl   $0x1,-0x10(%rbp)
    1d47:	48 8b 45 e8          	mov    -0x18(%rbp),%rax
    1d4b:	8b 40 08             	mov    0x8(%rax),%eax
    1d4e:	3b 45 f0             	cmp    -0x10(%rbp),%eax
    1d51:	7f c6                	jg     1d19 <compute_net_pin_index_values+0x3c>
    1d53:	83 45 f4 01          	addl   $0x1,-0xc(%rbp)
    1d57:	8b 05 00 00 00 00    	mov    0x0(%rip),%eax        # 1d5d <compute_net_pin_index_values+0x80>
    1d5d:	39 45 f4             	cmp    %eax,-0xc(%rbp)
    1d60:	7c 88                	jl     1cea <compute_net_pin_index_values+0xd>
    1d62:	c7 45 fc 00 00 00 00 	movl   $0x0,-0x4(%rbp)
    1d69:	e9 f3 00 00 00       	jmpq   1e61 <compute_net_pin_index_values+0x184>
    1d6e:	48 8b 0d 00 00 00 00 	mov    0x0(%rip),%rcx        # 1d75 <compute_net_pin_index_values+0x98>
    1d75:	8b 45 fc             	mov    -0x4(%rbp),%eax
    1d78:	48 63 d0             	movslq %eax,%rdx
    1d7b:	48 89 d0             	mov    %rdx,%rax
    1d7e:	48 c1 e0 02          	shl    $0x2,%rax
    1d82:	48 01 d0             	add    %rdx,%rax
    1d85:	48 c1 e0 03          	shl    $0x3,%rax
    1d89:	48 01 c8             	add    %rcx,%rax
    1d8c:	8b 40 20             	mov    0x20(%rax),%eax
    1d8f:	85 c0                	test   %eax,%eax
    1d91:	74 05                	je     1d98 <compute_net_pin_index_values+0xbb>
    1d93:	e9 c5 00 00 00       	jmpq   1e5d <compute_net_pin_index_values+0x180>
    1d98:	c7 45 f8 00 00 00 00 	movl   $0x0,-0x8(%rbp)
    1d9f:	e9 8f 00 00 00       	jmpq   1e33 <compute_net_pin_index_values+0x156>
    1da4:	48 8b 0d 00 00 00 00 	mov    0x0(%rip),%rcx        # 1dab <compute_net_pin_index_values+0xce>
    1dab:	8b 45 fc             	mov    -0x4(%rbp),%eax
    1dae:	48 63 d0             	movslq %eax,%rdx
    1db1:	48 89 d0             	mov    %rdx,%rax
    1db4:	48 c1 e0 02          	shl    $0x2,%rax
    1db8:	48 01 d0             	add    %rdx,%rax
    1dbb:	48 c1 e0 03          	shl    $0x3,%rax
    1dbf:	48 01 c8             	add    %rcx,%rax
    1dc2:	48 8b 40 10          	mov    0x10(%rax),%rax
    1dc6:	8b 55 f8             	mov    -0x8(%rbp),%edx
    1dc9:	48 63 d2             	movslq %edx,%rdx
    1dcc:	48 c1 e2 02          	shl    $0x2,%rdx
    1dd0:	48 01 d0             	add    %rdx,%rax
    1dd3:	8b 00                	mov    (%rax),%eax
    1dd5:	89 45 e4             	mov    %eax,-0x1c(%rbp)
    1dd8:	48 8b 05 00 00 00 00 	mov    0x0(%rip),%rax        # 1ddf <compute_net_pin_index_values+0x102>
    1ddf:	8b 55 e4             	mov    -0x1c(%rbp),%edx
    1de2:	48 63 d2             	movslq %edx,%rdx
    1de5:	48 c1 e2 03          	shl    $0x3,%rdx
    1de9:	48 01 d0             	add    %rdx,%rax
    1dec:	48 8b 08             	mov    (%rax),%rcx
    1def:	48 8b 35 00 00 00 00 	mov    0x0(%rip),%rsi        # 1df6 <compute_net_pin_index_values+0x119>
    1df6:	8b 45 fc             	mov    -0x4(%rbp),%eax
    1df9:	48 63 d0             	movslq %eax,%rdx
    1dfc:	48 89 d0             	mov    %rdx,%rax
    1dff:	48 c1 e0 02          	shl    $0x2,%rax
    1e03:	48 01 d0             	add    %rdx,%rax
    1e06:	48 c1 e0 03          	shl    $0x3,%rax
    1e0a:	48 01 f0             	add    %rsi,%rax
    1e0d:	48 8b 40 18          	mov    0x18(%rax),%rax
    1e11:	8b 55 f8             	mov    -0x8(%rbp),%edx
    1e14:	48 63 d2             	movslq %edx,%rdx
    1e17:	48 c1 e2 02          	shl    $0x2,%rdx
    1e1b:	48 01 d0             	add    %rdx,%rax
    1e1e:	8b 00                	mov    (%rax),%eax
    1e20:	48 98                	cltq   
    1e22:	48 c1 e0 02          	shl    $0x2,%rax
    1e26:	48 8d 14 01          	lea    (%rcx,%rax,1),%rdx
    1e2a:	8b 45 f8             	mov    -0x8(%rbp),%eax
    1e2d:	89 02                	mov    %eax,(%rdx)
    1e2f:	83 45 f8 01          	addl   $0x1,-0x8(%rbp)
    1e33:	48 8b 0d 00 00 00 00 	mov    0x0(%rip),%rcx        # 1e3a <compute_net_pin_index_values+0x15d>
    1e3a:	8b 45 fc             	mov    -0x4(%rbp),%eax
    1e3d:	48 63 d0             	movslq %eax,%rdx
    1e40:	48 89 d0             	mov    %rdx,%rax
    1e43:	48 c1 e0 02          	shl    $0x2,%rax
    1e47:	48 01 d0             	add    %rdx,%rax
    1e4a:	48 c1 e0 03          	shl    $0x3,%rax
    1e4e:	48 01 c8             	add    %rcx,%rax
    1e51:	8b 40 08             	mov    0x8(%rax),%eax
    1e54:	3b 45 f8             	cmp    -0x8(%rbp),%eax
    1e57:	0f 8d 47 ff ff ff    	jge    1da4 <compute_net_pin_index_values+0xc7>
    1e5d:	83 45 fc 01          	addl   $0x1,-0x4(%rbp)
    1e61:	8b 05 00 00 00 00    	mov    0x0(%rip),%eax        # 1e67 <compute_net_pin_index_values+0x18a>
    1e67:	39 45 fc             	cmp    %eax,-0x4(%rbp)
    1e6a:	0f 8c fe fe ff ff    	jl     1d6e <compute_net_pin_index_values+0x91>
    1e70:	5d                   	pop    %rbp
    1e71:	c3                   	retq   

0000000000001e72 <get_std_dev>:
    1e72:	55                   	push   %rbp
    1e73:	48 89 e5             	mov    %rsp,%rbp
    1e76:	48 83 ec 30          	sub    $0x30,%rsp
    1e7a:	89 7d ec             	mov    %edi,-0x14(%rbp)
    1e7d:	f2 0f 11 45 e0       	movsd  %xmm0,-0x20(%rbp)
    1e82:	f2 0f 11 4d d8       	movsd  %xmm1,-0x28(%rbp)
    1e87:	83 7d ec 01          	cmpl   $0x1,-0x14(%rbp)
    1e8b:	7f 0b                	jg     1e98 <get_std_dev+0x26>
    1e8d:	b8 00 00 00 00       	mov    $0x0,%eax
    1e92:	48 89 45 f8          	mov    %rax,-0x8(%rbp)
    1e96:	eb 3b                	jmp    1ed3 <get_std_dev+0x61>
    1e98:	66 0f ef c0          	pxor   %xmm0,%xmm0
    1e9c:	f2 0f 2a 45 ec       	cvtsi2sdl -0x14(%rbp),%xmm0
    1ea1:	f2 0f 59 45 d8       	mulsd  -0x28(%rbp),%xmm0
    1ea6:	f2 0f 59 45 d8       	mulsd  -0x28(%rbp),%xmm0
    1eab:	f2 0f 10 4d e0       	movsd  -0x20(%rbp),%xmm1
    1eb0:	f2 0f 5c c8          	subsd  %xmm0,%xmm1
    1eb4:	66 0f 28 c1          	movapd %xmm1,%xmm0
    1eb8:	8b 45 ec             	mov    -0x14(%rbp),%eax
    1ebb:	83 e8 01             	sub    $0x1,%eax
    1ebe:	66 0f ef c9          	pxor   %xmm1,%xmm1
    1ec2:	f2 0f 2a c8          	cvtsi2sd %eax,%xmm1
    1ec6:	f2 0f 5e c1          	divsd  %xmm1,%xmm0
    1eca:	66 48 0f 7e c0       	movq   %xmm0,%rax
    1ecf:	48 89 45 f8          	mov    %rax,-0x8(%rbp)
    1ed3:	f2 0f 10 45 f8       	movsd  -0x8(%rbp),%xmm0
    1ed8:	66 0f ef c9          	pxor   %xmm1,%xmm1
    1edc:	66 0f 2e c1          	ucomisd %xmm1,%xmm0
    1ee0:	76 1d                	jbe    1eff <get_std_dev+0x8d>
    1ee2:	48 8b 45 f8          	mov    -0x8(%rbp),%rax
    1ee6:	48 89 45 d0          	mov    %rax,-0x30(%rbp)
    1eea:	f2 0f 10 45 d0       	movsd  -0x30(%rbp),%xmm0
    1eef:	e8 00 00 00 00       	callq  1ef4 <get_std_dev+0x82>
    1ef4:	66 48 0f 7e c0       	movq   %xmm0,%rax
    1ef9:	48 89 45 f8          	mov    %rax,-0x8(%rbp)
    1efd:	eb 09                	jmp    1f08 <get_std_dev+0x96>
    1eff:	b8 00 00 00 00       	mov    $0x0,%eax
    1f04:	48 89 45 f8          	mov    %rax,-0x8(%rbp)
    1f08:	48 8b 45 f8          	mov    -0x8(%rbp),%rax
    1f0c:	48 89 45 d0          	mov    %rax,-0x30(%rbp)
    1f10:	f2 0f 10 45 d0       	movsd  -0x30(%rbp),%xmm0
    1f15:	c9                   	leaveq 
    1f16:	c3                   	retq   

0000000000001f17 <update_rlim>:
    1f17:	55                   	push   %rbp
    1f18:	48 89 e5             	mov    %rsp,%rbp
    1f1b:	48 89 7d e8          	mov    %rdi,-0x18(%rbp)
    1f1f:	f3 0f 11 45 e4       	movss  %xmm0,-0x1c(%rbp)
    1f24:	48 8b 45 e8          	mov    -0x18(%rbp),%rax
    1f28:	f3 0f 10 00          	movss  (%rax),%xmm0
    1f2c:	f3 0f 5a c8          	cvtss2sd %xmm0,%xmm1
    1f30:	f3 0f 5a 45 e4       	cvtss2sd -0x1c(%rbp),%xmm0
    1f35:	f2 0f 10 15 00 00 00 	movsd  0x0(%rip),%xmm2        # 1f3d <update_rlim+0x26>
    1f3c:	00 
    1f3d:	f2 0f 58 c2          	addsd  %xmm2,%xmm0
    1f41:	f2 0f 59 c1          	mulsd  %xmm1,%xmm0
    1f45:	f2 0f 5a d8          	cvtsd2ss %xmm0,%xmm3
    1f49:	66 0f 7e d8          	movd   %xmm3,%eax
    1f4d:	48 8b 55 e8          	mov    -0x18(%rbp),%rdx
    1f51:	89 02                	mov    %eax,(%rdx)
    1f53:	8b 15 00 00 00 00    	mov    0x0(%rip),%edx        # 1f59 <update_rlim+0x42>
    1f59:	8b 05 00 00 00 00    	mov    0x0(%rip),%eax        # 1f5f <update_rlim+0x48>
    1f5f:	39 c2                	cmp    %eax,%edx
    1f61:	0f 4d c2             	cmovge %edx,%eax
    1f64:	66 0f ef e4          	pxor   %xmm4,%xmm4
    1f68:	f3 0f 2a e0          	cvtsi2ss %eax,%xmm4
    1f6c:	66 0f 7e e0          	movd   %xmm4,%eax
    1f70:	89 45 fc             	mov    %eax,-0x4(%rbp)
    1f73:	48 8b 45 e8          	mov    -0x18(%rbp),%rax
    1f77:	f3 0f 10 00          	movss  (%rax),%xmm0
    1f7b:	0f 2e 45 fc          	ucomiss -0x4(%rbp),%xmm0
    1f7f:	76 05                	jbe    1f86 <update_rlim+0x6f>
    1f81:	8b 45 fc             	mov    -0x4(%rbp),%eax
    1f84:	eb 06                	jmp    1f8c <update_rlim+0x75>
    1f86:	48 8b 45 e8          	mov    -0x18(%rbp),%rax
    1f8a:	8b 00                	mov    (%rax),%eax
    1f8c:	48 8b 55 e8          	mov    -0x18(%rbp),%rdx
    1f90:	89 02                	mov    %eax,(%rdx)
    1f92:	48 8b 45 e8          	mov    -0x18(%rbp),%rax
    1f96:	f3 0f 10 00          	movss  (%rax),%xmm0
    1f9a:	f3 0f 10 0d 00 00 00 	movss  0x0(%rip),%xmm1        # 1fa2 <update_rlim+0x8b>
    1fa1:	00 
    1fa2:	0f 2e c1             	ucomiss %xmm1,%xmm0
    1fa5:	76 08                	jbe    1faf <update_rlim+0x98>
    1fa7:	48 8b 45 e8          	mov    -0x18(%rbp),%rax
    1fab:	8b 00                	mov    (%rax),%eax
    1fad:	eb 06                	jmp    1fb5 <update_rlim+0x9e>
    1faf:	8b 05 00 00 00 00    	mov    0x0(%rip),%eax        # 1fb5 <update_rlim+0x9e>
    1fb5:	48 8b 55 e8          	mov    -0x18(%rbp),%rdx
    1fb9:	89 02                	mov    %eax,(%rdx)
    1fbb:	5d                   	pop    %rbp
    1fbc:	c3                   	retq   

0000000000001fbd <update_t>:
    1fbd:	55                   	push   %rbp
    1fbe:	48 89 e5             	mov    %rsp,%rbp
    1fc1:	48 89 7d f8          	mov    %rdi,-0x8(%rbp)
    1fc5:	f3 0f 11 45 f4       	movss  %xmm0,-0xc(%rbp)
    1fca:	f3 0f 11 4d f0       	movss  %xmm1,-0x10(%rbp)
    1fcf:	f3 0f 11 55 ec       	movss  %xmm2,-0x14(%rbp)
    1fd4:	8b 45 10             	mov    0x10(%rbp),%eax
    1fd7:	83 f8 01             	cmp    $0x1,%eax
    1fda:	75 20                	jne    1ffc <update_t+0x3f>
    1fdc:	f3 0f 10 4d 1c       	movss  0x1c(%rbp),%xmm1
    1fe1:	48 8b 45 f8          	mov    -0x8(%rbp),%rax
    1fe5:	f3 0f 10 00          	movss  (%rax),%xmm0
    1fe9:	f3 0f 59 c8          	mulss  %xmm0,%xmm1
    1fed:	66 0f 7e c8          	movd   %xmm1,%eax
    1ff1:	48 8b 55 f8          	mov    -0x8(%rbp),%rdx
    1ff5:	89 02                	mov    %eax,(%rdx)
    1ff7:	e9 d8 00 00 00       	jmpq   20d4 <update_t+0x117>
    1ffc:	f3 0f 5a 45 ec       	cvtss2sd -0x14(%rbp),%xmm0
    2001:	66 0f 2e 05 00 00 00 	ucomisd 0x0(%rip),%xmm0        # 2009 <update_t+0x4c>
    2008:	00 
    2009:	76 23                	jbe    202e <update_t+0x71>
    200b:	48 8b 45 f8          	mov    -0x8(%rbp),%rax
    200f:	f3 0f 10 08          	movss  (%rax),%xmm1
    2013:	f3 0f 10 05 00 00 00 	movss  0x0(%rip),%xmm0        # 201b <update_t+0x5e>
    201a:	00 
    201b:	f3 0f 59 c8          	mulss  %xmm0,%xmm1
    201f:	66 0f 7e c8          	movd   %xmm1,%eax
    2023:	48 8b 55 f8          	mov    -0x8(%rbp),%rdx
    2027:	89 02                	mov    %eax,(%rdx)
    2029:	e9 a6 00 00 00       	jmpq   20d4 <update_t+0x117>
    202e:	f3 0f 5a 45 ec       	cvtss2sd -0x14(%rbp),%xmm0
    2033:	66 0f 2e 05 00 00 00 	ucomisd 0x0(%rip),%xmm0        # 203b <update_t+0x7e>
    203a:	00 
    203b:	76 28                	jbe    2065 <update_t+0xa8>
    203d:	48 8b 45 f8          	mov    -0x8(%rbp),%rax
    2041:	f3 0f 10 00          	movss  (%rax),%xmm0
    2045:	f3 0f 5a c0          	cvtss2sd %xmm0,%xmm0
    2049:	f2 0f 10 0d 00 00 00 	movsd  0x0(%rip),%xmm1        # 2051 <update_t+0x94>
    2050:	00 
    2051:	f2 0f 59 c1          	mulsd  %xmm1,%xmm0
    2055:	f2 0f 5a d8          	cvtsd2ss %xmm0,%xmm3
    2059:	66 0f 7e d8          	movd   %xmm3,%eax
    205d:	48 8b 55 f8          	mov    -0x8(%rbp),%rdx
    2061:	89 02                	mov    %eax,(%rdx)
    2063:	eb 6f                	jmp    20d4 <update_t+0x117>
    2065:	f3 0f 5a 45 ec       	cvtss2sd -0x14(%rbp),%xmm0
    206a:	66 0f 2e 05 00 00 00 	ucomisd 0x0(%rip),%xmm0        # 2072 <update_t+0xb5>
    2071:	00 
    2072:	77 12                	ja     2086 <update_t+0xc9>
    2074:	f3 0f 10 45 f0       	movss  -0x10(%rbp),%xmm0
    2079:	f3 0f 10 0d 00 00 00 	movss  0x0(%rip),%xmm1        # 2081 <update_t+0xc4>
    2080:	00 
    2081:	0f 2e c1             	ucomiss %xmm1,%xmm0
    2084:	76 28                	jbe    20ae <update_t+0xf1>
    2086:	48 8b 45 f8          	mov    -0x8(%rbp),%rax
    208a:	f3 0f 10 00          	movss  (%rax),%xmm0
    208e:	f3 0f 5a c0          	cvtss2sd %xmm0,%xmm0
    2092:	f2 0f 10 0d 00 00 00 	movsd  0x0(%rip),%xmm1        # 209a <update_t+0xdd>
    2099:	00 
    209a:	f2 0f 59 c1          	mulsd  %xmm1,%xmm0
    209e:	f2 0f 5a e0          	cvtsd2ss %xmm0,%xmm4
    20a2:	66 0f 7e e0          	movd   %xmm4,%eax
    20a6:	48 8b 55 f8          	mov    -0x8(%rbp),%rdx
    20aa:	89 02                	mov    %eax,(%rdx)
    20ac:	eb 26                	jmp    20d4 <update_t+0x117>
    20ae:	48 8b 45 f8          	mov    -0x8(%rbp),%rax
    20b2:	f3 0f 10 00          	movss  (%rax),%xmm0
    20b6:	f3 0f 5a c0          	cvtss2sd %xmm0,%xmm0
    20ba:	f2 0f 10 0d 00 00 00 	movsd  0x0(%rip),%xmm1        # 20c2 <update_t+0x105>
    20c1:	00 
    20c2:	f2 0f 59 c1          	mulsd  %xmm1,%xmm0
    20c6:	f2 0f 5a e8          	cvtsd2ss %xmm0,%xmm5
    20ca:	66 0f 7e e8          	movd   %xmm5,%eax
    20ce:	48 8b 55 f8          	mov    -0x8(%rbp),%rdx
    20d2:	89 02                	mov    %eax,(%rdx)
    20d4:	5d                   	pop    %rbp
    20d5:	c3                   	retq   

00000000000020d6 <exit_crit>:
    20d6:	55                   	push   %rbp
    20d7:	48 89 e5             	mov    %rsp,%rbp
    20da:	f3 0f 11 45 fc       	movss  %xmm0,-0x4(%rbp)
    20df:	f3 0f 11 4d f8       	movss  %xmm1,-0x8(%rbp)
    20e4:	8b 45 10             	mov    0x10(%rbp),%eax
    20e7:	83 f8 01             	cmp    $0x1,%eax
    20ea:	75 19                	jne    2105 <exit_crit+0x2f>
    20ec:	f3 0f 10 45 20       	movss  0x20(%rbp),%xmm0
    20f1:	0f 2e 45 fc          	ucomiss -0x4(%rbp),%xmm0
    20f5:	76 07                	jbe    20fe <exit_crit+0x28>
    20f7:	b8 01 00 00 00       	mov    $0x1,%eax
    20fc:	eb 41                	jmp    213f <exit_crit+0x69>
    20fe:	b8 00 00 00 00       	mov    $0x0,%eax
    2103:	eb 3a                	jmp    213f <exit_crit+0x69>
    2105:	f3 0f 5a 4d fc       	cvtss2sd -0x4(%rbp),%xmm1
    210a:	f3 0f 5a 45 f8       	cvtss2sd -0x8(%rbp),%xmm0
    210f:	f2 0f 10 15 00 00 00 	movsd  0x0(%rip),%xmm2        # 2117 <exit_crit+0x41>
    2116:	00 
    2117:	f2 0f 59 c2          	mulsd  %xmm2,%xmm0
    211b:	8b 05 00 00 00 00    	mov    0x0(%rip),%eax        # 2121 <exit_crit+0x4b>
    2121:	66 0f ef d2          	pxor   %xmm2,%xmm2
    2125:	f2 0f 2a d0          	cvtsi2sd %eax,%xmm2
    2129:	f2 0f 5e c2          	divsd  %xmm2,%xmm0
    212d:	66 0f 2e c1          	ucomisd %xmm1,%xmm0
    2131:	76 07                	jbe    213a <exit_crit+0x64>
    2133:	b8 01 00 00 00       	mov    $0x1,%eax
    2138:	eb 05                	jmp    213f <exit_crit+0x69>
    213a:	b8 00 00 00 00       	mov    $0x0,%eax
    213f:	5d                   	pop    %rbp
    2140:	c3                   	retq   

0000000000002141 <starting_t>:
    2141:	55                   	push   %rbp
    2142:	48 89 e5             	mov    %rsp,%rbp
    2145:	41 54                	push   %r12
    2147:	53                   	push   %rbx
    2148:	48 83 c4 80          	add    $0xffffffffffffff80,%rsp
    214c:	48 89 7d b8          	mov    %rdi,-0x48(%rbp)
    2150:	48 89 75 b0          	mov    %rsi,-0x50(%rbp)
    2154:	48 89 55 a8          	mov    %rdx,-0x58(%rbp)
    2158:	89 4d a4             	mov    %ecx,-0x5c(%rbp)
    215b:	4c 89 45 98          	mov    %r8,-0x68(%rbp)
    215f:	4c 89 4d 90          	mov    %r9,-0x70(%rbp)
    2163:	f3 0f 11 45 a0       	movss  %xmm0,-0x60(%rbp)
    2168:	f3 0f 11 4d 8c       	movss  %xmm1,-0x74(%rbp)
    216d:	f3 0f 11 55 88       	movss  %xmm2,-0x78(%rbp)
    2172:	f3 0f 11 5d 84       	movss  %xmm3,-0x7c(%rbp)
    2177:	8b 05 00 00 00 00    	mov    0x0(%rip),%eax        # 217d <starting_t+0x3c>
    217d:	48 98                	cltq   
    217f:	48 c1 e0 02          	shl    $0x2,%rax
    2183:	48 89 c7             	mov    %rax,%rdi
    2186:	e8 00 00 00 00       	callq  218b <starting_t+0x4a>
    218b:	48 89 45 d0          	mov    %rax,-0x30(%rbp)
    218f:	8b 45 20             	mov    0x20(%rbp),%eax
    2192:	83 f8 01             	cmp    $0x1,%eax
    2195:	75 08                	jne    219f <starting_t+0x5e>
    2197:	8b 45 28             	mov    0x28(%rbp),%eax
    219a:	e9 ca 01 00 00       	jmpq   2369 <starting_t+0x228>
    219f:	8b 05 00 00 00 00    	mov    0x0(%rip),%eax        # 21a5 <starting_t+0x64>
    21a5:	39 45 38             	cmp    %eax,0x38(%rbp)
    21a8:	0f 4e 45 38          	cmovle 0x38(%rbp),%eax
    21ac:	89 45 cc             	mov    %eax,-0x34(%rbp)
    21af:	c7 45 e8 00 00 00 00 	movl   $0x0,-0x18(%rbp)
    21b6:	b8 00 00 00 00       	mov    $0x0,%eax
    21bb:	48 89 45 e0          	mov    %rax,-0x20(%rbp)
    21bf:	b8 00 00 00 00       	mov    $0x0,%eax
    21c4:	48 89 45 d8          	mov    %rax,-0x28(%rbp)
    21c8:	c7 45 ec 00 00 00 00 	movl   $0x0,-0x14(%rbp)
    21cf:	e9 e0 00 00 00       	jmpq   22b4 <starting_t+0x173>
    21d4:	48 83 ec 08          	sub    $0x8,%rsp
    21d8:	44 8b 65 84          	mov    -0x7c(%rbp),%r12d
    21dc:	8b 5d 88             	mov    -0x78(%rbp),%ebx
    21df:	44 8b 5d 8c          	mov    -0x74(%rbp),%r11d
    21e3:	4c 8b 4d 90          	mov    -0x70(%rbp),%r9
    21e7:	4c 8b 45 98          	mov    -0x68(%rbp),%r8
    21eb:	8b 4d a4             	mov    -0x5c(%rbp),%ecx
    21ee:	44 8b 55 a0          	mov    -0x60(%rbp),%r10d
    21f2:	48 8b 55 a8          	mov    -0x58(%rbp),%rdx
    21f6:	48 8b 75 b0          	mov    -0x50(%rbp),%rsi
    21fa:	48 8b 45 b8          	mov    -0x48(%rbp),%rax
    21fe:	ff 75 d0             	pushq  -0x30(%rbp)
    2201:	ff 75 48             	pushq  0x48(%rbp)
    2204:	8b 7d 40             	mov    0x40(%rbp),%edi
    2207:	57                   	push   %rdi
    2208:	8b 7d 18             	mov    0x18(%rbp),%edi
    220b:	57                   	push   %rdi
    220c:	8b 7d 10             	mov    0x10(%rbp),%edi
    220f:	57                   	push   %rdi
    2210:	44 89 a5 78 ff ff ff 	mov    %r12d,-0x88(%rbp)
    2217:	f3 0f 10 a5 78 ff ff 	movss  -0x88(%rbp),%xmm4
    221e:	ff 
    221f:	89 9d 78 ff ff ff    	mov    %ebx,-0x88(%rbp)
    2225:	f3 0f 10 9d 78 ff ff 	movss  -0x88(%rbp),%xmm3
    222c:	ff 
    222d:	44 89 9d 78 ff ff ff 	mov    %r11d,-0x88(%rbp)
    2234:	f3 0f 10 95 78 ff ff 	movss  -0x88(%rbp),%xmm2
    223b:	ff 
    223c:	44 89 95 78 ff ff ff 	mov    %r10d,-0x88(%rbp)
    2243:	f3 0f 10 8d 78 ff ff 	movss  -0x88(%rbp),%xmm1
    224a:	ff 
    224b:	48 89 c7             	mov    %rax,%rdi
    224e:	f3 0f 10 05 00 00 00 	movss  0x0(%rip),%xmm0        # 2256 <starting_t+0x115>
    2255:	00 
    2256:	e8 25 01 00 00       	callq  2380 <try_swap>
    225b:	48 83 c4 30          	add    $0x30,%rsp
    225f:	83 f8 01             	cmp    $0x1,%eax
    2262:	75 4c                	jne    22b0 <starting_t+0x16f>
    2264:	83 45 e8 01          	addl   $0x1,-0x18(%rbp)
    2268:	48 8b 45 b8          	mov    -0x48(%rbp),%rax
    226c:	f3 0f 10 00          	movss  (%rax),%xmm0
    2270:	f3 0f 5a c0          	cvtss2sd %xmm0,%xmm0
    2274:	f2 0f 10 4d e0       	movsd  -0x20(%rbp),%xmm1
    2279:	f2 0f 58 c8          	addsd  %xmm0,%xmm1
    227d:	66 48 0f 7e c8       	movq   %xmm1,%rax
    2282:	48 89 45 e0          	mov    %rax,-0x20(%rbp)
    2286:	48 8b 45 b8          	mov    -0x48(%rbp),%rax
    228a:	f3 0f 10 08          	movss  (%rax),%xmm1
    228e:	48 8b 45 b8          	mov    -0x48(%rbp),%rax
    2292:	f3 0f 10 00          	movss  (%rax),%xmm0
    2296:	f3 0f 59 c1          	mulss  %xmm1,%xmm0
    229a:	f3 0f 5a c0          	cvtss2sd %xmm0,%xmm0
    229e:	f2 0f 10 4d d8       	movsd  -0x28(%rbp),%xmm1
    22a3:	f2 0f 58 c8          	addsd  %xmm0,%xmm1
    22a7:	66 48 0f 7e c8       	movq   %xmm1,%rax
    22ac:	48 89 45 d8          	mov    %rax,-0x28(%rbp)
    22b0:	83 45 ec 01          	addl   $0x1,-0x14(%rbp)
    22b4:	8b 45 ec             	mov    -0x14(%rbp),%eax
    22b7:	3b 45 cc             	cmp    -0x34(%rbp),%eax
    22ba:	0f 8c 14 ff ff ff    	jl     21d4 <starting_t+0x93>
    22c0:	83 7d e8 00          	cmpl   $0x0,-0x18(%rbp)
    22c4:	74 1d                	je     22e3 <starting_t+0x1a2>
    22c6:	66 0f ef c0          	pxor   %xmm0,%xmm0
    22ca:	f2 0f 2a 45 e8       	cvtsi2sdl -0x18(%rbp),%xmm0
    22cf:	f2 0f 10 4d e0       	movsd  -0x20(%rbp),%xmm1
    22d4:	f2 0f 5e c8          	divsd  %xmm0,%xmm1
    22d8:	66 48 0f 7e c8       	movq   %xmm1,%rax
    22dd:	48 89 45 e0          	mov    %rax,-0x20(%rbp)
    22e1:	eb 09                	jmp    22ec <starting_t+0x1ab>
    22e3:	b8 00 00 00 00       	mov    $0x0,%eax
    22e8:	48 89 45 e0          	mov    %rax,-0x20(%rbp)
    22ec:	48 8b 4d e0          	mov    -0x20(%rbp),%rcx
    22f0:	48 8b 55 d8          	mov    -0x28(%rbp),%rdx
    22f4:	8b 45 e8             	mov    -0x18(%rbp),%eax
    22f7:	48 89 8d 78 ff ff ff 	mov    %rcx,-0x88(%rbp)
    22fe:	f2 0f 10 8d 78 ff ff 	movsd  -0x88(%rbp),%xmm1
    2305:	ff 
    2306:	48 89 95 78 ff ff ff 	mov    %rdx,-0x88(%rbp)
    230d:	f2 0f 10 85 78 ff ff 	movsd  -0x88(%rbp),%xmm0
    2314:	ff 
    2315:	89 c7                	mov    %eax,%edi
    2317:	e8 56 fb ff ff       	callq  1e72 <get_std_dev>
    231c:	66 48 0f 7e c0       	movq   %xmm0,%rax
    2321:	48 89 45 c0          	mov    %rax,-0x40(%rbp)
    2325:	8b 45 e8             	mov    -0x18(%rbp),%eax
    2328:	3b 45 cc             	cmp    -0x34(%rbp),%eax
    232b:	74 17                	je     2344 <starting_t+0x203>
    232d:	8b 55 cc             	mov    -0x34(%rbp),%edx
    2330:	8b 45 e8             	mov    -0x18(%rbp),%eax
    2333:	89 c6                	mov    %eax,%esi
    2335:	bf 00 00 00 00       	mov    $0x0,%edi
    233a:	b8 00 00 00 00       	mov    $0x0,%eax
    233f:	e8 00 00 00 00       	callq  2344 <starting_t+0x203>
    2344:	48 8b 45 d0          	mov    -0x30(%rbp),%rax
    2348:	48 89 c7             	mov    %rax,%rdi
    234b:	e8 00 00 00 00       	callq  2350 <starting_t+0x20f>
    2350:	f2 0f 10 4d c0       	movsd  -0x40(%rbp),%xmm1
    2355:	f2 0f 10 05 00 00 00 	movsd  0x0(%rip),%xmm0        # 235d <starting_t+0x21c>
    235c:	00 
    235d:	f2 0f 59 c1          	mulsd  %xmm1,%xmm0
    2361:	f2 0f 5a e8          	cvtsd2ss %xmm0,%xmm5
    2365:	66 0f 7e e8          	movd   %xmm5,%eax
    2369:	89 85 78 ff ff ff    	mov    %eax,-0x88(%rbp)
    236f:	f3 0f 10 85 78 ff ff 	movss  -0x88(%rbp),%xmm0
    2376:	ff 
    2377:	48 8d 65 f0          	lea    -0x10(%rbp),%rsp
    237b:	5b                   	pop    %rbx
    237c:	41 5c                	pop    %r12
    237e:	5d                   	pop    %rbp
    237f:	c3                   	retq   

0000000000002380 <try_swap>:
    2380:	55                   	push   %rbp
    2381:	48 89 e5             	mov    %rsp,%rbp
    2384:	53                   	push   %rbx
    2385:	48 81 ec b8 00 00 00 	sub    $0xb8,%rsp
    238c:	f3 0f 11 45 8c       	movss  %xmm0,-0x74(%rbp)
    2391:	48 89 7d 80          	mov    %rdi,-0x80(%rbp)
    2395:	48 89 b5 78 ff ff ff 	mov    %rsi,-0x88(%rbp)
    239c:	48 89 95 70 ff ff ff 	mov    %rdx,-0x90(%rbp)
    23a3:	f3 0f 11 4d 88       	movss  %xmm1,-0x78(%rbp)
    23a8:	89 8d 6c ff ff ff    	mov    %ecx,-0x94(%rbp)
    23ae:	4c 89 85 60 ff ff ff 	mov    %r8,-0xa0(%rbp)
    23b5:	4c 89 8d 58 ff ff ff 	mov    %r9,-0xa8(%rbp)
    23bc:	f3 0f 11 95 68 ff ff 	movss  %xmm2,-0x98(%rbp)
    23c3:	ff 
    23c4:	f3 0f 11 9d 54 ff ff 	movss  %xmm3,-0xac(%rbp)
    23cb:	ff 
    23cc:	f3 0f 11 a5 50 ff ff 	movss  %xmm4,-0xb0(%rbp)
    23d3:	ff 
    23d4:	c7 45 d8 00 00 00 00 	movl   $0x0,-0x28(%rbp)
    23db:	c7 45 e0 00 00 00 00 	movl   $0x0,-0x20(%rbp)
    23e2:	eb 36                	jmp    241a <try_swap+0x9a>
    23e4:	48 8b 0d 00 00 00 00 	mov    0x0(%rip),%rcx        # 23eb <try_swap+0x6b>
    23eb:	8b 45 e0             	mov    -0x20(%rbp),%eax
    23ee:	48 63 d0             	movslq %eax,%rdx
    23f1:	48 89 d0             	mov    %rdx,%rax
    23f4:	48 c1 e0 03          	shl    $0x3,%rax
    23f8:	48 01 d0             	add    %rdx,%rax
    23fb:	48 01 c0             	add    %rax,%rax
    23fe:	48 01 d0             	add    %rdx,%rax
    2401:	48 c1 e0 03          	shl    $0x3,%rax
    2405:	48 01 c8             	add    %rcx,%rax
    2408:	8b 50 08             	mov    0x8(%rax),%edx
    240b:	8b 45 d8             	mov    -0x28(%rbp),%eax
    240e:	39 c2                	cmp    %eax,%edx
    2410:	0f 4d c2             	cmovge %edx,%eax
    2413:	89 45 d8             	mov    %eax,-0x28(%rbp)
    2416:	83 45 e0 01          	addl   $0x1,-0x20(%rbp)
    241a:	8b 05 00 00 00 00    	mov    0x0(%rip),%eax        # 2420 <try_swap+0xa0>
    2420:	39 45 e0             	cmp    %eax,-0x20(%rbp)
    2423:	7c bf                	jl     23e4 <try_swap+0x64>
    2425:	48 8b 05 00 00 00 00 	mov    0x0(%rip),%rax        # 242c <try_swap+0xac>
    242c:	48 85 c0             	test   %rax,%rax
    242f:	75 60                	jne    2491 <try_swap+0x111>
    2431:	8b 45 d8             	mov    -0x28(%rbp),%eax
    2434:	48 98                	cltq   
    2436:	48 c1 e0 05          	shl    $0x5,%rax
    243a:	48 89 c7             	mov    %rax,%rdi
    243d:	e8 00 00 00 00       	callq  2442 <try_swap+0xc2>
    2442:	48 89 05 00 00 00 00 	mov    %rax,0x0(%rip)        # 2449 <try_swap+0xc9>
    2449:	8b 45 d8             	mov    -0x28(%rbp),%eax
    244c:	48 98                	cltq   
    244e:	48 c1 e0 05          	shl    $0x5,%rax
    2452:	48 89 c7             	mov    %rax,%rdi
    2455:	e8 00 00 00 00       	callq  245a <try_swap+0xda>
    245a:	48 89 05 00 00 00 00 	mov    %rax,0x0(%rip)        # 2461 <try_swap+0xe1>
    2461:	8b 45 d8             	mov    -0x28(%rbp),%eax
    2464:	48 98                	cltq   
    2466:	48 c1 e0 03          	shl    $0x3,%rax
    246a:	48 89 c7             	mov    %rax,%rdi
    246d:	e8 00 00 00 00       	callq  2472 <try_swap+0xf2>
    2472:	48 89 05 00 00 00 00 	mov    %rax,0x0(%rip)        # 2479 <try_swap+0xf9>
    2479:	8b 45 d8             	mov    -0x28(%rbp),%eax
    247c:	48 98                	cltq   
    247e:	48 c1 e0 03          	shl    $0x3,%rax
    2482:	48 89 c7             	mov    %rax,%rdi
    2485:	e8 00 00 00 00       	callq  248a <try_swap+0x10a>
    248a:	48 89 05 00 00 00 00 	mov    %rax,0x0(%rip)        # 2491 <try_swap+0x111>
    2491:	8b 05 00 00 00 00    	mov    0x0(%rip),%eax        # 2497 <try_swap+0x117>
    2497:	89 45 9c             	mov    %eax,-0x64(%rbp)
    249a:	8b 05 00 00 00 00    	mov    0x0(%rip),%eax        # 24a0 <try_swap+0x120>
    24a0:	83 e8 01             	sub    $0x1,%eax
    24a3:	89 c7                	mov    %eax,%edi
    24a5:	e8 00 00 00 00       	callq  24aa <try_swap+0x12a>
    24aa:	89 45 ec             	mov    %eax,-0x14(%rbp)
    24ad:	83 7d 18 01          	cmpl   $0x1,0x18(%rbp)
    24b1:	75 43                	jne    24f6 <try_swap+0x176>
    24b3:	eb 13                	jmp    24c8 <try_swap+0x148>
    24b5:	8b 05 00 00 00 00    	mov    0x0(%rip),%eax        # 24bb <try_swap+0x13b>
    24bb:	83 e8 01             	sub    $0x1,%eax
    24be:	89 c7                	mov    %eax,%edi
    24c0:	e8 00 00 00 00       	callq  24c5 <try_swap+0x145>
    24c5:	89 45 ec             	mov    %eax,-0x14(%rbp)
    24c8:	48 8b 0d 00 00 00 00 	mov    0x0(%rip),%rcx        # 24cf <try_swap+0x14f>
    24cf:	8b 45 ec             	mov    -0x14(%rbp),%eax
    24d2:	48 63 d0             	movslq %eax,%rdx
    24d5:	48 89 d0             	mov    %rdx,%rax
    24d8:	48 c1 e0 02          	shl    $0x2,%rax
    24dc:	48 01 d0             	add    %rdx,%rax
    24df:	48 c1 e0 03          	shl    $0x3,%rax
    24e3:	48 01 c8             	add    %rcx,%rax
    24e6:	48 8b 50 08          	mov    0x8(%rax),%rdx
    24ea:	48 8b 05 00 00 00 00 	mov    0x0(%rip),%rax        # 24f1 <try_swap+0x171>
    24f1:	48 39 c2             	cmp    %rax,%rdx
    24f4:	74 bf                	je     24b5 <try_swap+0x135>
    24f6:	48 8b 0d 00 00 00 00 	mov    0x0(%rip),%rcx        # 24fd <try_swap+0x17d>
    24fd:	8b 45 ec             	mov    -0x14(%rbp),%eax
    2500:	48 63 d0             	movslq %eax,%rdx
    2503:	48 89 d0             	mov    %rdx,%rax
    2506:	48 c1 e0 02          	shl    $0x2,%rax
    250a:	48 01 d0             	add    %rdx,%rax
    250d:	48 c1 e0 03          	shl    $0x3,%rax
    2511:	48 01 c8             	add    %rcx,%rax
    2514:	8b 40 18             	mov    0x18(%rax),%eax
    2517:	89 45 c8             	mov    %eax,-0x38(%rbp)
    251a:	48 8b 0d 00 00 00 00 	mov    0x0(%rip),%rcx        # 2521 <try_swap+0x1a1>
    2521:	8b 45 ec             	mov    -0x14(%rbp),%eax
    2524:	48 63 d0             	movslq %eax,%rdx
    2527:	48 89 d0             	mov    %rdx,%rax
    252a:	48 c1 e0 02          	shl    $0x2,%rax
    252e:	48 01 d0             	add    %rdx,%rax
    2531:	48 c1 e0 03          	shl    $0x3,%rax
    2535:	48 01 c8             	add    %rcx,%rax
    2538:	8b 40 1c             	mov    0x1c(%rax),%eax
    253b:	89 45 c4             	mov    %eax,-0x3c(%rbp)
    253e:	48 8b 0d 00 00 00 00 	mov    0x0(%rip),%rcx        # 2545 <try_swap+0x1c5>
    2545:	8b 45 ec             	mov    -0x14(%rbp),%eax
    2548:	48 63 d0             	movslq %eax,%rdx
    254b:	48 89 d0             	mov    %rdx,%rax
    254e:	48 c1 e0 02          	shl    $0x2,%rax
    2552:	48 01 d0             	add    %rdx,%rax
    2555:	48 c1 e0 03          	shl    $0x3,%rax
    2559:	48 01 c8             	add    %rcx,%rax
    255c:	8b 40 20             	mov    0x20(%rax),%eax
    255f:	89 45 c0             	mov    %eax,-0x40(%rbp)
    2562:	48 8b 0d 00 00 00 00 	mov    0x0(%rip),%rcx        # 2569 <try_swap+0x1e9>
    2569:	8b 45 ec             	mov    -0x14(%rbp),%eax
    256c:	48 63 d0             	movslq %eax,%rdx
    256f:	48 89 d0             	mov    %rdx,%rax
    2572:	48 c1 e0 02          	shl    $0x2,%rax
    2576:	48 01 d0             	add    %rdx,%rax
    2579:	48 c1 e0 03          	shl    $0x3,%rax
    257d:	48 01 c8             	add    %rcx,%rax
    2580:	48 8b 50 08          	mov    0x8(%rax),%rdx
    2584:	4c 8d 4d a4          	lea    -0x5c(%rbp),%r9
    2588:	4c 8d 45 a8          	lea    -0x58(%rbp),%r8
    258c:	48 8b 4d 30          	mov    0x30(%rbp),%rcx
    2590:	8b 7d 88             	mov    -0x78(%rbp),%edi
    2593:	8b 75 c4             	mov    -0x3c(%rbp),%esi
    2596:	8b 45 c8             	mov    -0x38(%rbp),%eax
    2599:	89 bd 4c ff ff ff    	mov    %edi,-0xb4(%rbp)
    259f:	f3 0f 10 85 4c ff ff 	movss  -0xb4(%rbp),%xmm0
    25a6:	ff 
    25a7:	89 c7                	mov    %eax,%edi
    25a9:	e8 d5 0e 00 00       	callq  3483 <find_to>
    25ae:	85 c0                	test   %eax,%eax
    25b0:	75 0a                	jne    25bc <try_swap+0x23c>
    25b2:	b8 00 00 00 00       	mov    $0x0,%eax
    25b7:	e9 45 0a 00 00       	jmpq   3001 <try_swap+0xc81>
    25bc:	c7 45 e8 00 00 00 00 	movl   $0x0,-0x18(%rbp)
    25c3:	48 8b 05 00 00 00 00 	mov    0x0(%rip),%rax        # 25ca <try_swap+0x24a>
    25ca:	8b 55 a8             	mov    -0x58(%rbp),%edx
    25cd:	48 63 d2             	movslq %edx,%rdx
    25d0:	48 c1 e2 03          	shl    $0x3,%rdx
    25d4:	48 01 d0             	add    %rdx,%rax
    25d7:	48 8b 08             	mov    (%rax),%rcx
    25da:	8b 45 a4             	mov    -0x5c(%rbp),%eax
    25dd:	48 63 d0             	movslq %eax,%rdx
    25e0:	48 89 d0             	mov    %rdx,%rax
    25e3:	48 01 c0             	add    %rax,%rax
    25e6:	48 01 d0             	add    %rdx,%rax
    25e9:	48 c1 e0 03          	shl    $0x3,%rax
    25ed:	48 01 c8             	add    %rcx,%rax
    25f0:	48 8b 00             	mov    (%rax),%rax
    25f3:	8b 40 0c             	mov    0xc(%rax),%eax
    25f6:	83 f8 01             	cmp    $0x1,%eax
    25f9:	7e 40                	jle    263b <try_swap+0x2bb>
    25fb:	48 8b 05 00 00 00 00 	mov    0x0(%rip),%rax        # 2602 <try_swap+0x282>
    2602:	8b 55 a8             	mov    -0x58(%rbp),%edx
    2605:	48 63 d2             	movslq %edx,%rdx
    2608:	48 c1 e2 03          	shl    $0x3,%rdx
    260c:	48 01 d0             	add    %rdx,%rax
    260f:	48 8b 08             	mov    (%rax),%rcx
    2612:	8b 45 a4             	mov    -0x5c(%rbp),%eax
    2615:	48 63 d0             	movslq %eax,%rdx
    2618:	48 89 d0             	mov    %rdx,%rax
    261b:	48 01 c0             	add    %rax,%rax
    261e:	48 01 d0             	add    %rdx,%rax
    2621:	48 c1 e0 03          	shl    $0x3,%rax
    2625:	48 01 c8             	add    %rcx,%rax
    2628:	48 8b 00             	mov    (%rax),%rax
    262b:	8b 40 0c             	mov    0xc(%rax),%eax
    262e:	83 e8 01             	sub    $0x1,%eax
    2631:	89 c7                	mov    %eax,%edi
    2633:	e8 00 00 00 00       	callq  2638 <try_swap+0x2b8>
    2638:	89 45 e8             	mov    %eax,-0x18(%rbp)
    263b:	48 8b 05 00 00 00 00 	mov    0x0(%rip),%rax        # 2642 <try_swap+0x2c2>
    2642:	8b 55 a8             	mov    -0x58(%rbp),%edx
    2645:	48 63 d2             	movslq %edx,%rdx
    2648:	48 c1 e2 03          	shl    $0x3,%rdx
    264c:	48 01 d0             	add    %rdx,%rax
    264f:	48 8b 08             	mov    (%rax),%rcx
    2652:	8b 45 a4             	mov    -0x5c(%rbp),%eax
    2655:	48 63 d0             	movslq %eax,%rdx
    2658:	48 89 d0             	mov    %rdx,%rax
    265b:	48 01 c0             	add    %rax,%rax
    265e:	48 01 d0             	add    %rdx,%rax
    2661:	48 c1 e0 03          	shl    $0x3,%rax
    2665:	48 01 c8             	add    %rcx,%rax
    2668:	48 8b 40 10          	mov    0x10(%rax),%rax
    266c:	8b 55 e8             	mov    -0x18(%rbp),%edx
    266f:	48 63 d2             	movslq %edx,%rdx
    2672:	48 c1 e2 02          	shl    $0x2,%rdx
    2676:	48 01 d0             	add    %rdx,%rax
    2679:	8b 00                	mov    (%rax),%eax
    267b:	83 f8 ff             	cmp    $0xffffffff,%eax
    267e:	75 7b                	jne    26fb <try_swap+0x37b>
    2680:	c7 45 e4 ff ff ff ff 	movl   $0xffffffff,-0x1c(%rbp)
    2687:	48 8b 0d 00 00 00 00 	mov    0x0(%rip),%rcx        # 268e <try_swap+0x30e>
    268e:	8b 45 ec             	mov    -0x14(%rbp),%eax
    2691:	48 63 d0             	movslq %eax,%rdx
    2694:	48 89 d0             	mov    %rdx,%rax
    2697:	48 c1 e0 02          	shl    $0x2,%rax
    269b:	48 01 d0             	add    %rdx,%rax
    269e:	48 c1 e0 03          	shl    $0x3,%rax
    26a2:	48 8d 14 01          	lea    (%rcx,%rax,1),%rdx
    26a6:	8b 45 a8             	mov    -0x58(%rbp),%eax
    26a9:	89 42 18             	mov    %eax,0x18(%rdx)
    26ac:	48 8b 0d 00 00 00 00 	mov    0x0(%rip),%rcx        # 26b3 <try_swap+0x333>
    26b3:	8b 45 ec             	mov    -0x14(%rbp),%eax
    26b6:	48 63 d0             	movslq %eax,%rdx
    26b9:	48 89 d0             	mov    %rdx,%rax
    26bc:	48 c1 e0 02          	shl    $0x2,%rax
    26c0:	48 01 d0             	add    %rdx,%rax
    26c3:	48 c1 e0 03          	shl    $0x3,%rax
    26c7:	48 8d 14 01          	lea    (%rcx,%rax,1),%rdx
    26cb:	8b 45 a4             	mov    -0x5c(%rbp),%eax
    26ce:	89 42 1c             	mov    %eax,0x1c(%rdx)
    26d1:	48 8b 0d 00 00 00 00 	mov    0x0(%rip),%rcx        # 26d8 <try_swap+0x358>
    26d8:	8b 45 ec             	mov    -0x14(%rbp),%eax
    26db:	48 63 d0             	movslq %eax,%rdx
    26de:	48 89 d0             	mov    %rdx,%rax
    26e1:	48 c1 e0 02          	shl    $0x2,%rax
    26e5:	48 01 d0             	add    %rdx,%rax
    26e8:	48 c1 e0 03          	shl    $0x3,%rax
    26ec:	48 8d 14 01          	lea    (%rcx,%rax,1),%rdx
    26f0:	8b 45 e8             	mov    -0x18(%rbp),%eax
    26f3:	89 42 20             	mov    %eax,0x20(%rdx)
    26f6:	e9 21 01 00 00       	jmpq   281c <try_swap+0x49c>
    26fb:	48 8b 05 00 00 00 00 	mov    0x0(%rip),%rax        # 2702 <try_swap+0x382>
    2702:	8b 55 a8             	mov    -0x58(%rbp),%edx
    2705:	48 63 d2             	movslq %edx,%rdx
    2708:	48 c1 e2 03          	shl    $0x3,%rdx
    270c:	48 01 d0             	add    %rdx,%rax
    270f:	48 8b 08             	mov    (%rax),%rcx
    2712:	8b 45 a4             	mov    -0x5c(%rbp),%eax
    2715:	48 63 d0             	movslq %eax,%rdx
    2718:	48 89 d0             	mov    %rdx,%rax
    271b:	48 01 c0             	add    %rax,%rax
    271e:	48 01 d0             	add    %rdx,%rax
    2721:	48 c1 e0 03          	shl    $0x3,%rax
    2725:	48 01 c8             	add    %rcx,%rax
    2728:	48 8b 40 10          	mov    0x10(%rax),%rax
    272c:	8b 55 e8             	mov    -0x18(%rbp),%edx
    272f:	48 63 d2             	movslq %edx,%rdx
    2732:	48 c1 e2 02          	shl    $0x2,%rdx
    2736:	48 01 d0             	add    %rdx,%rax
    2739:	8b 00                	mov    (%rax),%eax
    273b:	89 45 e4             	mov    %eax,-0x1c(%rbp)
    273e:	48 8b 0d 00 00 00 00 	mov    0x0(%rip),%rcx        # 2745 <try_swap+0x3c5>
    2745:	8b 45 e4             	mov    -0x1c(%rbp),%eax
    2748:	48 63 d0             	movslq %eax,%rdx
    274b:	48 89 d0             	mov    %rdx,%rax
    274e:	48 c1 e0 02          	shl    $0x2,%rax
    2752:	48 01 d0             	add    %rdx,%rax
    2755:	48 c1 e0 03          	shl    $0x3,%rax
    2759:	48 8d 14 01          	lea    (%rcx,%rax,1),%rdx
    275d:	8b 45 c8             	mov    -0x38(%rbp),%eax
    2760:	89 42 18             	mov    %eax,0x18(%rdx)
    2763:	48 8b 0d 00 00 00 00 	mov    0x0(%rip),%rcx        # 276a <try_swap+0x3ea>
    276a:	8b 45 e4             	mov    -0x1c(%rbp),%eax
    276d:	48 63 d0             	movslq %eax,%rdx
    2770:	48 89 d0             	mov    %rdx,%rax
    2773:	48 c1 e0 02          	shl    $0x2,%rax
    2777:	48 01 d0             	add    %rdx,%rax
    277a:	48 c1 e0 03          	shl    $0x3,%rax
    277e:	48 8d 14 01          	lea    (%rcx,%rax,1),%rdx
    2782:	8b 45 c4             	mov    -0x3c(%rbp),%eax
    2785:	89 42 1c             	mov    %eax,0x1c(%rdx)
    2788:	48 8b 0d 00 00 00 00 	mov    0x0(%rip),%rcx        # 278f <try_swap+0x40f>
    278f:	8b 45 e4             	mov    -0x1c(%rbp),%eax
    2792:	48 63 d0             	movslq %eax,%rdx
    2795:	48 89 d0             	mov    %rdx,%rax
    2798:	48 c1 e0 02          	shl    $0x2,%rax
    279c:	48 01 d0             	add    %rdx,%rax
    279f:	48 c1 e0 03          	shl    $0x3,%rax
    27a3:	48 8d 14 01          	lea    (%rcx,%rax,1),%rdx
    27a7:	8b 45 c0             	mov    -0x40(%rbp),%eax
    27aa:	89 42 20             	mov    %eax,0x20(%rdx)
    27ad:	48 8b 0d 00 00 00 00 	mov    0x0(%rip),%rcx        # 27b4 <try_swap+0x434>
    27b4:	8b 45 ec             	mov    -0x14(%rbp),%eax
    27b7:	48 63 d0             	movslq %eax,%rdx
    27ba:	48 89 d0             	mov    %rdx,%rax
    27bd:	48 c1 e0 02          	shl    $0x2,%rax
    27c1:	48 01 d0             	add    %rdx,%rax
    27c4:	48 c1 e0 03          	shl    $0x3,%rax
    27c8:	48 8d 14 01          	lea    (%rcx,%rax,1),%rdx
    27cc:	8b 45 a8             	mov    -0x58(%rbp),%eax
    27cf:	89 42 18             	mov    %eax,0x18(%rdx)
    27d2:	48 8b 0d 00 00 00 00 	mov    0x0(%rip),%rcx        # 27d9 <try_swap+0x459>
    27d9:	8b 45 ec             	mov    -0x14(%rbp),%eax
    27dc:	48 63 d0             	movslq %eax,%rdx
    27df:	48 89 d0             	mov    %rdx,%rax
    27e2:	48 c1 e0 02          	shl    $0x2,%rax
    27e6:	48 01 d0             	add    %rdx,%rax
    27e9:	48 c1 e0 03          	shl    $0x3,%rax
    27ed:	48 8d 14 01          	lea    (%rcx,%rax,1),%rdx
    27f1:	8b 45 a4             	mov    -0x5c(%rbp),%eax
    27f4:	89 42 1c             	mov    %eax,0x1c(%rdx)
    27f7:	48 8b 0d 00 00 00 00 	mov    0x0(%rip),%rcx        # 27fe <try_swap+0x47e>
    27fe:	8b 45 ec             	mov    -0x14(%rbp),%eax
    2801:	48 63 d0             	movslq %eax,%rdx
    2804:	48 89 d0             	mov    %rdx,%rax
    2807:	48 c1 e0 02          	shl    $0x2,%rax
    280b:	48 01 d0             	add    %rdx,%rax
    280e:	48 c1 e0 03          	shl    $0x3,%rax
    2812:	48 8d 14 01          	lea    (%rcx,%rax,1),%rdx
    2816:	8b 45 e8             	mov    -0x18(%rbp),%eax
    2819:	89 42 20             	mov    %eax,0x20(%rdx)
    281c:	8b 05 00 00 00 00    	mov    0x0(%rip),%eax        # 2822 <try_swap+0x4a2>
    2822:	89 45 d0             	mov    %eax,-0x30(%rbp)
    2825:	8b 05 00 00 00 00    	mov    0x0(%rip),%eax        # 282b <try_swap+0x4ab>
    282b:	89 45 cc             	mov    %eax,-0x34(%rbp)
    282e:	8b 05 00 00 00 00    	mov    0x0(%rip),%eax        # 2834 <try_swap+0x4b4>
    2834:	89 45 a0             	mov    %eax,-0x60(%rbp)
    2837:	48 8b 0d 00 00 00 00 	mov    0x0(%rip),%rcx        # 283e <try_swap+0x4be>
    283e:	8b 45 ec             	mov    -0x14(%rbp),%eax
    2841:	48 63 d0             	movslq %eax,%rdx
    2844:	48 89 d0             	mov    %rdx,%rax
    2847:	48 c1 e0 02          	shl    $0x2,%rax
    284b:	48 01 d0             	add    %rdx,%rax
    284e:	48 c1 e0 03          	shl    $0x3,%rax
    2852:	48 01 c8             	add    %rcx,%rax
    2855:	48 8b 40 08          	mov    0x8(%rax),%rax
    2859:	8b 40 08             	mov    0x8(%rax),%eax
    285c:	89 45 bc             	mov    %eax,-0x44(%rbp)
    285f:	48 8b 35 00 00 00 00 	mov    0x0(%rip),%rsi        # 2866 <try_swap+0x4e6>
    2866:	48 8b 05 00 00 00 00 	mov    0x0(%rip),%rax        # 286d <try_swap+0x4ed>
    286d:	8b 7d bc             	mov    -0x44(%rbp),%edi
    2870:	8b 4d e4             	mov    -0x1c(%rbp),%ecx
    2873:	8b 55 ec             	mov    -0x14(%rbp),%edx
    2876:	41 89 f8             	mov    %edi,%r8d
    2879:	48 89 c7             	mov    %rax,%rdi
    287c:	e8 4c 09 00 00       	callq  31cd <find_affected_nets>
    2881:	89 45 b8             	mov    %eax,-0x48(%rbp)
    2884:	83 bd 6c ff ff ff 01 	cmpl   $0x1,-0x94(%rbp)
    288b:	75 1c                	jne    28a9 <try_swap+0x529>
    288d:	48 8b 8d 58 ff ff ff 	mov    -0xa8(%rbp),%rcx
    2894:	48 8b 85 60 ff ff ff 	mov    -0xa0(%rbp),%rax
    289b:	8b 55 10             	mov    0x10(%rbp),%edx
    289e:	48 89 ce             	mov    %rcx,%rsi
    28a1:	48 89 c7             	mov    %rax,%rdi
    28a4:	e8 5e 07 00 00       	callq  3007 <save_region_occ>
    28a9:	c7 45 d4 00 00 00 00 	movl   $0x0,-0x2c(%rbp)
    28b0:	c7 45 dc 00 00 00 00 	movl   $0x0,-0x24(%rbp)
    28b7:	e9 26 02 00 00       	jmpq   2ae2 <try_swap+0x762>
    28bc:	48 8b 05 00 00 00 00 	mov    0x0(%rip),%rax        # 28c3 <try_swap+0x543>
    28c3:	8b 55 dc             	mov    -0x24(%rbp),%edx
    28c6:	48 63 d2             	movslq %edx,%rdx
    28c9:	48 c1 e2 02          	shl    $0x2,%rdx
    28cd:	48 01 d0             	add    %rdx,%rax
    28d0:	8b 00                	mov    (%rax),%eax
    28d2:	89 45 b4             	mov    %eax,-0x4c(%rbp)
    28d5:	48 8b 05 00 00 00 00 	mov    0x0(%rip),%rax        # 28dc <try_swap+0x55c>
    28dc:	8b 55 dc             	mov    -0x24(%rbp),%edx
    28df:	48 63 d2             	movslq %edx,%rdx
    28e2:	48 c1 e2 02          	shl    $0x2,%rdx
    28e6:	48 01 d0             	add    %rdx,%rax
    28e9:	8b 00                	mov    (%rax),%eax
    28eb:	83 f8 02             	cmp    $0x2,%eax
    28ee:	75 05                	jne    28f5 <try_swap+0x575>
    28f0:	e9 e9 01 00 00       	jmpq   2ade <try_swap+0x75e>
    28f5:	48 8b 0d 00 00 00 00 	mov    0x0(%rip),%rcx        # 28fc <try_swap+0x57c>
    28fc:	8b 45 b4             	mov    -0x4c(%rbp),%eax
    28ff:	48 63 d0             	movslq %eax,%rdx
    2902:	48 89 d0             	mov    %rdx,%rax
    2905:	48 c1 e0 02          	shl    $0x2,%rax
    2909:	48 01 d0             	add    %rdx,%rax
    290c:	48 c1 e0 03          	shl    $0x3,%rax
    2910:	48 01 c8             	add    %rcx,%rax
    2913:	8b 40 08             	mov    0x8(%rax),%eax
    2916:	83 f8 03             	cmp    $0x3,%eax
    2919:	7f 26                	jg     2941 <try_swap+0x5c1>
    291b:	48 8b 05 00 00 00 00 	mov    0x0(%rip),%rax        # 2922 <try_swap+0x5a2>
    2922:	8b 55 d4             	mov    -0x2c(%rbp),%edx
    2925:	48 63 d2             	movslq %edx,%rdx
    2928:	48 c1 e2 04          	shl    $0x4,%rdx
    292c:	48 01 c2             	add    %rax,%rdx
    292f:	8b 45 b4             	mov    -0x4c(%rbp),%eax
    2932:	48 89 d6             	mov    %rdx,%rsi
    2935:	89 c7                	mov    %eax,%edi
    2937:	e8 55 4e 00 00       	callq  7791 <get_non_updateable_bb>
    293c:	e9 bc 00 00 00       	jmpq   29fd <try_swap+0x67d>
    2941:	48 8b 05 00 00 00 00 	mov    0x0(%rip),%rax        # 2948 <try_swap+0x5c8>
    2948:	8b 55 dc             	mov    -0x24(%rbp),%edx
    294b:	48 63 d2             	movslq %edx,%rdx
    294e:	48 c1 e2 02          	shl    $0x2,%rdx
    2952:	48 01 d0             	add    %rdx,%rax
    2955:	8b 00                	mov    (%rax),%eax
    2957:	85 c0                	test   %eax,%eax
    2959:	75 52                	jne    29ad <try_swap+0x62d>
    295b:	8b 4d a4             	mov    -0x5c(%rbp),%ecx
    295e:	44 8b 4d a8          	mov    -0x58(%rbp),%r9d
    2962:	48 8b 05 00 00 00 00 	mov    0x0(%rip),%rax        # 2969 <try_swap+0x5e9>
    2969:	8b 55 d4             	mov    -0x2c(%rbp),%edx
    296c:	48 63 d2             	movslq %edx,%rdx
    296f:	48 c1 e2 04          	shl    $0x4,%rdx
    2973:	48 8d 3c 10          	lea    (%rax,%rdx,1),%rdi
    2977:	48 8b 05 00 00 00 00 	mov    0x0(%rip),%rax        # 297e <try_swap+0x5fe>
    297e:	8b 55 d4             	mov    -0x2c(%rbp),%edx
    2981:	48 63 d2             	movslq %edx,%rdx
    2984:	48 c1 e2 04          	shl    $0x4,%rdx
    2988:	48 8d 34 10          	lea    (%rax,%rdx,1),%rsi
    298c:	48 83 ec 08          	sub    $0x8,%rsp
    2990:	44 8b 45 c4          	mov    -0x3c(%rbp),%r8d
    2994:	8b 55 c8             	mov    -0x38(%rbp),%edx
    2997:	8b 45 b4             	mov    -0x4c(%rbp),%eax
    299a:	51                   	push   %rcx
    299b:	89 d1                	mov    %edx,%ecx
    299d:	48 89 fa             	mov    %rdi,%rdx
    29a0:	89 c7                	mov    %eax,%edi
    29a2:	e8 2d 50 00 00       	callq  79d4 <update_bb>
    29a7:	48 83 c4 10          	add    $0x10,%rsp
    29ab:	eb 50                	jmp    29fd <try_swap+0x67d>
    29ad:	44 8b 45 a4          	mov    -0x5c(%rbp),%r8d
    29b1:	8b 55 a8             	mov    -0x58(%rbp),%edx
    29b4:	48 8b 05 00 00 00 00 	mov    0x0(%rip),%rax        # 29bb <try_swap+0x63b>
    29bb:	8b 4d d4             	mov    -0x2c(%rbp),%ecx
    29be:	48 63 c9             	movslq %ecx,%rcx
    29c1:	48 c1 e1 04          	shl    $0x4,%rcx
    29c5:	48 8d 3c 08          	lea    (%rax,%rcx,1),%rdi
    29c9:	48 8b 05 00 00 00 00 	mov    0x0(%rip),%rax        # 29d0 <try_swap+0x650>
    29d0:	8b 4d d4             	mov    -0x2c(%rbp),%ecx
    29d3:	48 63 c9             	movslq %ecx,%rcx
    29d6:	48 c1 e1 04          	shl    $0x4,%rcx
    29da:	48 8d 34 08          	lea    (%rax,%rcx,1),%rsi
    29de:	48 83 ec 08          	sub    $0x8,%rsp
    29e2:	44 8b 4d c8          	mov    -0x38(%rbp),%r9d
    29e6:	8b 45 b4             	mov    -0x4c(%rbp),%eax
    29e9:	8b 4d c4             	mov    -0x3c(%rbp),%ecx
    29ec:	51                   	push   %rcx
    29ed:	89 d1                	mov    %edx,%ecx
    29ef:	48 89 fa             	mov    %rdi,%rdx
    29f2:	89 c7                	mov    %eax,%edi
    29f4:	e8 db 4f 00 00       	callq  79d4 <update_bb>
    29f9:	48 83 c4 10          	add    $0x10,%rsp
    29fd:	83 bd 6c ff ff ff 01 	cmpl   $0x1,-0x94(%rbp)
    2a04:	0f 84 82 00 00 00    	je     2a8c <try_swap+0x70c>
    2a0a:	48 8b 05 00 00 00 00 	mov    0x0(%rip),%rax        # 2a11 <try_swap+0x691>
    2a11:	8b 55 b4             	mov    -0x4c(%rbp),%edx
    2a14:	48 63 d2             	movslq %edx,%rdx
    2a17:	48 c1 e2 02          	shl    $0x2,%rdx
    2a1b:	48 8d 1c 10          	lea    (%rax,%rdx,1),%rbx
    2a1f:	48 8b 05 00 00 00 00 	mov    0x0(%rip),%rax        # 2a26 <try_swap+0x6a6>
    2a26:	8b 55 d4             	mov    -0x2c(%rbp),%edx
    2a29:	48 63 d2             	movslq %edx,%rdx
    2a2c:	48 c1 e2 04          	shl    $0x4,%rdx
    2a30:	48 01 c2             	add    %rax,%rdx
    2a33:	8b 45 b4             	mov    -0x4c(%rbp),%eax
    2a36:	48 89 d6             	mov    %rdx,%rsi
    2a39:	89 c7                	mov    %eax,%edi
    2a3b:	e8 cf 4b 00 00       	callq  760f <get_net_cost>
    2a40:	66 0f 7e c0          	movd   %xmm0,%eax
    2a44:	89 03                	mov    %eax,(%rbx)
    2a46:	48 8b 05 00 00 00 00 	mov    0x0(%rip),%rax        # 2a4d <try_swap+0x6cd>
    2a4d:	8b 55 b4             	mov    -0x4c(%rbp),%edx
    2a50:	48 63 d2             	movslq %edx,%rdx
    2a53:	48 c1 e2 02          	shl    $0x2,%rdx
    2a57:	48 01 d0             	add    %rdx,%rax
    2a5a:	f3 0f 10 00          	movss  (%rax),%xmm0
    2a5e:	48 8b 05 00 00 00 00 	mov    0x0(%rip),%rax        # 2a65 <try_swap+0x6e5>
    2a65:	8b 55 b4             	mov    -0x4c(%rbp),%edx
    2a68:	48 63 d2             	movslq %edx,%rdx
    2a6b:	48 c1 e2 02          	shl    $0x2,%rdx
    2a6f:	48 01 d0             	add    %rdx,%rax
    2a72:	f3 0f 10 08          	movss  (%rax),%xmm1
    2a76:	f3 0f 5c c1          	subss  %xmm1,%xmm0
    2a7a:	f3 0f 10 4d cc       	movss  -0x34(%rbp),%xmm1
    2a7f:	f3 0f 58 c8          	addss  %xmm0,%xmm1
    2a83:	66 0f 7e c8          	movd   %xmm1,%eax
    2a87:	89 45 cc             	mov    %eax,-0x34(%rbp)
    2a8a:	eb 4e                	jmp    2ada <try_swap+0x75a>
    2a8c:	48 8b 05 00 00 00 00 	mov    0x0(%rip),%rax        # 2a93 <try_swap+0x713>
    2a93:	8b 55 b4             	mov    -0x4c(%rbp),%edx
    2a96:	48 63 d2             	movslq %edx,%rdx
    2a99:	48 c1 e2 04          	shl    $0x4,%rdx
    2a9d:	48 8d 34 10          	lea    (%rax,%rdx,1),%rsi
    2aa1:	8b 45 b4             	mov    -0x4c(%rbp),%eax
    2aa4:	8b 4d 10             	mov    0x10(%rbp),%ecx
    2aa7:	ba ff ff ff ff       	mov    $0xffffffff,%edx
    2aac:	89 c7                	mov    %eax,%edi
    2aae:	e8 3b 2c 00 00       	callq  56ee <update_region_occ>
    2ab3:	48 8b 05 00 00 00 00 	mov    0x0(%rip),%rax        # 2aba <try_swap+0x73a>
    2aba:	8b 55 d4             	mov    -0x2c(%rbp),%edx
    2abd:	48 63 d2             	movslq %edx,%rdx
    2ac0:	48 c1 e2 04          	shl    $0x4,%rdx
    2ac4:	48 8d 34 10          	lea    (%rax,%rdx,1),%rsi
    2ac8:	8b 45 b4             	mov    -0x4c(%rbp),%eax
    2acb:	8b 4d 10             	mov    0x10(%rbp),%ecx
    2ace:	ba 01 00 00 00       	mov    $0x1,%edx
    2ad3:	89 c7                	mov    %eax,%edi
    2ad5:	e8 14 2c 00 00       	callq  56ee <update_region_occ>
    2ada:	83 45 d4 01          	addl   $0x1,-0x2c(%rbp)
    2ade:	83 45 dc 01          	addl   $0x1,-0x24(%rbp)
    2ae2:	8b 45 dc             	mov    -0x24(%rbp),%eax
    2ae5:	3b 45 b8             	cmp    -0x48(%rbp),%eax
    2ae8:	0f 8c ce fd ff ff    	jl     28bc <try_swap+0x53c>
    2aee:	83 bd 6c ff ff ff 01 	cmpl   $0x1,-0x94(%rbp)
    2af5:	75 2a                	jne    2b21 <try_swap+0x7a1>
    2af7:	8b 7d 10             	mov    0x10(%rbp),%edi
    2afa:	e8 30 29 00 00       	callq  542f <nonlinear_cong_cost>
    2aff:	66 0f 7e c0          	movd   %xmm0,%eax
    2b03:	89 45 b0             	mov    %eax,-0x50(%rbp)
    2b06:	48 8b 85 78 ff ff ff 	mov    -0x88(%rbp),%rax
    2b0d:	f3 0f 10 08          	movss  (%rax),%xmm1
    2b11:	f3 0f 10 45 b0       	movss  -0x50(%rbp),%xmm0
    2b16:	f3 0f 5c c1          	subss  %xmm1,%xmm0
    2b1a:	66 0f 7e c0          	movd   %xmm0,%eax
    2b1e:	89 45 cc             	mov    %eax,-0x34(%rbp)
    2b21:	83 7d 20 01          	cmpl   $0x1,0x20(%rbp)
    2b25:	74 06                	je     2b2d <try_swap+0x7ad>
    2b27:	83 7d 20 02          	cmpl   $0x2,0x20(%rbp)
    2b2b:	75 5d                	jne    2b8a <try_swap+0x80a>
    2b2d:	48 8d 7d 9c          	lea    -0x64(%rbp),%rdi
    2b31:	48 8d 4d a0          	lea    -0x60(%rbp),%rcx
    2b35:	8b 55 bc             	mov    -0x44(%rbp),%edx
    2b38:	8b 75 e4             	mov    -0x1c(%rbp),%esi
    2b3b:	8b 45 ec             	mov    -0x14(%rbp),%eax
    2b3e:	49 89 f8             	mov    %rdi,%r8
    2b41:	89 c7                	mov    %eax,%edi
    2b43:	e8 17 1c 00 00       	callq  475f <comp_delta_td_cost>
    2b48:	f3 0f 10 05 00 00 00 	movss  0x0(%rip),%xmm0        # 2b50 <try_swap+0x7d0>
    2b4f:	00 
    2b50:	f3 0f 5c 85 68 ff ff 	subss  -0x98(%rbp),%xmm0
    2b57:	ff 
    2b58:	f3 0f 59 45 cc       	mulss  -0x34(%rbp),%xmm0
    2b5d:	0f 28 c8             	movaps %xmm0,%xmm1
    2b60:	f3 0f 59 8d 54 ff ff 	mulss  -0xac(%rbp),%xmm1
    2b67:	ff 
    2b68:	f3 0f 10 45 a0       	movss  -0x60(%rbp),%xmm0
    2b6d:	f3 0f 59 85 68 ff ff 	mulss  -0x98(%rbp),%xmm0
    2b74:	ff 
    2b75:	f3 0f 59 85 50 ff ff 	mulss  -0xb0(%rbp),%xmm0
    2b7c:	ff 
    2b7d:	f3 0f 58 c8          	addss  %xmm0,%xmm1
    2b81:	66 0f 7e c8          	movd   %xmm1,%eax
    2b85:	89 45 d0             	mov    %eax,-0x30(%rbp)
    2b88:	eb 06                	jmp    2b90 <try_swap+0x810>
    2b8a:	8b 45 cc             	mov    -0x34(%rbp),%eax
    2b8d:	89 45 d0             	mov    %eax,-0x30(%rbp)
    2b90:	8b 55 8c             	mov    -0x74(%rbp),%edx
    2b93:	8b 45 d0             	mov    -0x30(%rbp),%eax
    2b96:	89 95 4c ff ff ff    	mov    %edx,-0xb4(%rbp)
    2b9c:	f3 0f 10 8d 4c ff ff 	movss  -0xb4(%rbp),%xmm1
    2ba3:	ff 
    2ba4:	89 85 4c ff ff ff    	mov    %eax,-0xb4(%rbp)
    2baa:	f3 0f 10 85 4c ff ff 	movss  -0xb4(%rbp),%xmm0
    2bb1:	ff 
    2bb2:	e8 70 10 00 00       	callq  3c27 <assess_swap>
    2bb7:	89 45 ac             	mov    %eax,-0x54(%rbp)
    2bba:	83 7d ac 00          	cmpl   $0x0,-0x54(%rbp)
    2bbe:	0f 84 e7 02 00 00    	je     2eab <try_swap+0xb2b>
    2bc4:	48 8b 45 80          	mov    -0x80(%rbp),%rax
    2bc8:	f3 0f 10 00          	movss  (%rax),%xmm0
    2bcc:	f3 0f 58 45 d0       	addss  -0x30(%rbp),%xmm0
    2bd1:	66 0f 7e c0          	movd   %xmm0,%eax
    2bd5:	48 8b 55 80          	mov    -0x80(%rbp),%rdx
    2bd9:	89 02                	mov    %eax,(%rdx)
    2bdb:	48 8b 85 78 ff ff ff 	mov    -0x88(%rbp),%rax
    2be2:	f3 0f 10 00          	movss  (%rax),%xmm0
    2be6:	f3 0f 58 45 cc       	addss  -0x34(%rbp),%xmm0
    2beb:	66 0f 7e c0          	movd   %xmm0,%eax
    2bef:	48 8b 95 78 ff ff ff 	mov    -0x88(%rbp),%rdx
    2bf6:	89 02                	mov    %eax,(%rdx)
    2bf8:	83 7d 20 01          	cmpl   $0x1,0x20(%rbp)
    2bfc:	74 06                	je     2c04 <try_swap+0x884>
    2bfe:	83 7d 20 02          	cmpl   $0x2,0x20(%rbp)
    2c02:	75 4e                	jne    2c52 <try_swap+0x8d2>
    2c04:	48 8b 85 70 ff ff ff 	mov    -0x90(%rbp),%rax
    2c0b:	f3 0f 10 08          	movss  (%rax),%xmm1
    2c0f:	f3 0f 10 45 a0       	movss  -0x60(%rbp),%xmm0
    2c14:	f3 0f 58 c8          	addss  %xmm0,%xmm1
    2c18:	66 0f 7e c8          	movd   %xmm1,%eax
    2c1c:	48 8b 95 70 ff ff ff 	mov    -0x90(%rbp),%rdx
    2c23:	89 02                	mov    %eax,(%rdx)
    2c25:	48 8b 45 28          	mov    0x28(%rbp),%rax
    2c29:	f3 0f 10 08          	movss  (%rax),%xmm1
    2c2d:	f3 0f 10 45 9c       	movss  -0x64(%rbp),%xmm0
    2c32:	f3 0f 58 c8          	addss  %xmm0,%xmm1
    2c36:	66 0f 7e c8          	movd   %xmm1,%eax
    2c3a:	48 8b 55 28          	mov    0x28(%rbp),%rdx
    2c3e:	89 02                	mov    %eax,(%rdx)
    2c40:	8b 55 bc             	mov    -0x44(%rbp),%edx
    2c43:	8b 4d e4             	mov    -0x1c(%rbp),%ecx
    2c46:	8b 45 ec             	mov    -0x14(%rbp),%eax
    2c49:	89 ce                	mov    %ecx,%esi
    2c4b:	89 c7                	mov    %eax,%edi
    2c4d:	e8 92 14 00 00       	callq  40e4 <update_td_cost>
    2c52:	c7 45 d4 00 00 00 00 	movl   $0x0,-0x2c(%rbp)
    2c59:	c7 45 dc 00 00 00 00 	movl   $0x0,-0x24(%rbp)
    2c60:	e9 39 01 00 00       	jmpq   2d9e <try_swap+0xa1e>
    2c65:	48 8b 05 00 00 00 00 	mov    0x0(%rip),%rax        # 2c6c <try_swap+0x8ec>
    2c6c:	8b 55 dc             	mov    -0x24(%rbp),%edx
    2c6f:	48 63 d2             	movslq %edx,%rdx
    2c72:	48 c1 e2 02          	shl    $0x2,%rdx
    2c76:	48 01 d0             	add    %rdx,%rax
    2c79:	8b 00                	mov    (%rax),%eax
    2c7b:	89 45 b4             	mov    %eax,-0x4c(%rbp)
    2c7e:	48 8b 05 00 00 00 00 	mov    0x0(%rip),%rax        # 2c85 <try_swap+0x905>
    2c85:	8b 55 dc             	mov    -0x24(%rbp),%edx
    2c88:	48 63 d2             	movslq %edx,%rdx
    2c8b:	48 c1 e2 02          	shl    $0x2,%rdx
    2c8f:	48 01 d0             	add    %rdx,%rax
    2c92:	8b 00                	mov    (%rax),%eax
    2c94:	83 f8 02             	cmp    $0x2,%eax
    2c97:	75 21                	jne    2cba <try_swap+0x93a>
    2c99:	48 8b 05 00 00 00 00 	mov    0x0(%rip),%rax        # 2ca0 <try_swap+0x920>
    2ca0:	8b 55 b4             	mov    -0x4c(%rbp),%edx
    2ca3:	48 63 d2             	movslq %edx,%rdx
    2ca6:	48 c1 e2 02          	shl    $0x2,%rdx
    2caa:	48 01 c2             	add    %rax,%rdx
    2cad:	8b 05 00 00 00 00    	mov    0x0(%rip),%eax        # 2cb3 <try_swap+0x933>
    2cb3:	89 02                	mov    %eax,(%rdx)
    2cb5:	e9 e0 00 00 00       	jmpq   2d9a <try_swap+0xa1a>
    2cba:	48 8b 05 00 00 00 00 	mov    0x0(%rip),%rax        # 2cc1 <try_swap+0x941>
    2cc1:	8b 55 b4             	mov    -0x4c(%rbp),%edx
    2cc4:	48 63 d2             	movslq %edx,%rdx
    2cc7:	48 c1 e2 04          	shl    $0x4,%rdx
    2ccb:	48 8d 0c 10          	lea    (%rax,%rdx,1),%rcx
    2ccf:	48 8b 05 00 00 00 00 	mov    0x0(%rip),%rax        # 2cd6 <try_swap+0x956>
    2cd6:	8b 55 d4             	mov    -0x2c(%rbp),%edx
    2cd9:	48 63 d2             	movslq %edx,%rdx
    2cdc:	48 c1 e2 04          	shl    $0x4,%rdx
    2ce0:	48 01 d0             	add    %rdx,%rax
    2ce3:	48 8b 50 08          	mov    0x8(%rax),%rdx
    2ce7:	48 8b 00             	mov    (%rax),%rax
    2cea:	48 89 01             	mov    %rax,(%rcx)
    2ced:	48 89 51 08          	mov    %rdx,0x8(%rcx)
    2cf1:	48 8b 0d 00 00 00 00 	mov    0x0(%rip),%rcx        # 2cf8 <try_swap+0x978>
    2cf8:	8b 45 b4             	mov    -0x4c(%rbp),%eax
    2cfb:	48 63 d0             	movslq %eax,%rdx
    2cfe:	48 89 d0             	mov    %rdx,%rax
    2d01:	48 c1 e0 02          	shl    $0x2,%rax
    2d05:	48 01 d0             	add    %rdx,%rax
    2d08:	48 c1 e0 03          	shl    $0x3,%rax
    2d0c:	48 01 c8             	add    %rcx,%rax
    2d0f:	8b 40 08             	mov    0x8(%rax),%eax
    2d12:	83 f8 03             	cmp    $0x3,%eax
    2d15:	7e 37                	jle    2d4e <try_swap+0x9ce>
    2d17:	48 8b 05 00 00 00 00 	mov    0x0(%rip),%rax        # 2d1e <try_swap+0x99e>
    2d1e:	8b 55 b4             	mov    -0x4c(%rbp),%edx
    2d21:	48 63 d2             	movslq %edx,%rdx
    2d24:	48 c1 e2 04          	shl    $0x4,%rdx
    2d28:	48 8d 0c 10          	lea    (%rax,%rdx,1),%rcx
    2d2c:	48 8b 05 00 00 00 00 	mov    0x0(%rip),%rax        # 2d33 <try_swap+0x9b3>
    2d33:	8b 55 d4             	mov    -0x2c(%rbp),%edx
    2d36:	48 63 d2             	movslq %edx,%rdx
    2d39:	48 c1 e2 04          	shl    $0x4,%rdx
    2d3d:	48 01 d0             	add    %rdx,%rax
    2d40:	48 8b 50 08          	mov    0x8(%rax),%rdx
    2d44:	48 8b 00             	mov    (%rax),%rax
    2d47:	48 89 01             	mov    %rax,(%rcx)
    2d4a:	48 89 51 08          	mov    %rdx,0x8(%rcx)
    2d4e:	83 45 d4 01          	addl   $0x1,-0x2c(%rbp)
    2d52:	48 8b 05 00 00 00 00 	mov    0x0(%rip),%rax        # 2d59 <try_swap+0x9d9>
    2d59:	8b 55 b4             	mov    -0x4c(%rbp),%edx
    2d5c:	48 63 d2             	movslq %edx,%rdx
    2d5f:	48 c1 e2 02          	shl    $0x2,%rdx
    2d63:	48 01 c2             	add    %rax,%rdx
    2d66:	48 8b 05 00 00 00 00 	mov    0x0(%rip),%rax        # 2d6d <try_swap+0x9ed>
    2d6d:	8b 4d b4             	mov    -0x4c(%rbp),%ecx
    2d70:	48 63 c9             	movslq %ecx,%rcx
    2d73:	48 c1 e1 02          	shl    $0x2,%rcx
    2d77:	48 01 c8             	add    %rcx,%rax
    2d7a:	8b 00                	mov    (%rax),%eax
    2d7c:	89 02                	mov    %eax,(%rdx)
    2d7e:	48 8b 05 00 00 00 00 	mov    0x0(%rip),%rax        # 2d85 <try_swap+0xa05>
    2d85:	8b 55 b4             	mov    -0x4c(%rbp),%edx
    2d88:	48 63 d2             	movslq %edx,%rdx
    2d8b:	48 c1 e2 02          	shl    $0x2,%rdx
    2d8f:	48 01 c2             	add    %rax,%rdx
    2d92:	8b 05 00 00 00 00    	mov    0x0(%rip),%eax        # 2d98 <try_swap+0xa18>
    2d98:	89 02                	mov    %eax,(%rdx)
    2d9a:	83 45 dc 01          	addl   $0x1,-0x24(%rbp)
    2d9e:	8b 45 dc             	mov    -0x24(%rbp),%eax
    2da1:	3b 45 b8             	cmp    -0x48(%rbp),%eax
    2da4:	0f 8c bb fe ff ff    	jl     2c65 <try_swap+0x8e5>
    2daa:	48 8b 05 00 00 00 00 	mov    0x0(%rip),%rax        # 2db1 <try_swap+0xa31>
    2db1:	8b 55 a8             	mov    -0x58(%rbp),%edx
    2db4:	48 63 d2             	movslq %edx,%rdx
    2db7:	48 c1 e2 03          	shl    $0x3,%rdx
    2dbb:	48 01 d0             	add    %rdx,%rax
    2dbe:	48 8b 08             	mov    (%rax),%rcx
    2dc1:	8b 45 a4             	mov    -0x5c(%rbp),%eax
    2dc4:	48 63 d0             	movslq %eax,%rdx
    2dc7:	48 89 d0             	mov    %rdx,%rax
    2dca:	48 01 c0             	add    %rax,%rax
    2dcd:	48 01 d0             	add    %rdx,%rax
    2dd0:	48 c1 e0 03          	shl    $0x3,%rax
    2dd4:	48 01 c8             	add    %rcx,%rax
    2dd7:	48 8b 40 10          	mov    0x10(%rax),%rax
    2ddb:	8b 55 e8             	mov    -0x18(%rbp),%edx
    2dde:	48 63 d2             	movslq %edx,%rdx
    2de1:	48 c1 e2 02          	shl    $0x2,%rdx
    2de5:	48 01 c2             	add    %rax,%rdx
    2de8:	8b 45 ec             	mov    -0x14(%rbp),%eax
    2deb:	89 02                	mov    %eax,(%rdx)
    2ded:	48 8b 05 00 00 00 00 	mov    0x0(%rip),%rax        # 2df4 <try_swap+0xa74>
    2df4:	8b 55 c8             	mov    -0x38(%rbp),%edx
    2df7:	48 63 d2             	movslq %edx,%rdx
    2dfa:	48 c1 e2 03          	shl    $0x3,%rdx
    2dfe:	48 01 d0             	add    %rdx,%rax
    2e01:	48 8b 08             	mov    (%rax),%rcx
    2e04:	8b 45 c4             	mov    -0x3c(%rbp),%eax
    2e07:	48 63 d0             	movslq %eax,%rdx
    2e0a:	48 89 d0             	mov    %rdx,%rax
    2e0d:	48 01 c0             	add    %rax,%rax
    2e10:	48 01 d0             	add    %rdx,%rax
    2e13:	48 c1 e0 03          	shl    $0x3,%rax
    2e17:	48 01 c8             	add    %rcx,%rax
    2e1a:	48 8b 40 10          	mov    0x10(%rax),%rax
    2e1e:	8b 55 c0             	mov    -0x40(%rbp),%edx
    2e21:	48 63 d2             	movslq %edx,%rdx
    2e24:	48 c1 e2 02          	shl    $0x2,%rdx
    2e28:	48 01 c2             	add    %rax,%rdx
    2e2b:	8b 45 e4             	mov    -0x1c(%rbp),%eax
    2e2e:	89 02                	mov    %eax,(%rdx)
    2e30:	83 7d e4 ff          	cmpl   $0xffffffff,-0x1c(%rbp)
    2e34:	0f 85 c4 01 00 00    	jne    2ffe <try_swap+0xc7e>
    2e3a:	48 8b 05 00 00 00 00 	mov    0x0(%rip),%rax        # 2e41 <try_swap+0xac1>
    2e41:	8b 55 a8             	mov    -0x58(%rbp),%edx
    2e44:	48 63 d2             	movslq %edx,%rdx
    2e47:	48 c1 e2 03          	shl    $0x3,%rdx
    2e4b:	48 01 d0             	add    %rdx,%rax
    2e4e:	48 8b 08             	mov    (%rax),%rcx
    2e51:	8b 45 a4             	mov    -0x5c(%rbp),%eax
    2e54:	48 63 d0             	movslq %eax,%rdx
    2e57:	48 89 d0             	mov    %rdx,%rax
    2e5a:	48 01 c0             	add    %rax,%rax
    2e5d:	48 01 d0             	add    %rdx,%rax
    2e60:	48 c1 e0 03          	shl    $0x3,%rax
    2e64:	48 01 c8             	add    %rcx,%rax
    2e67:	8b 50 0c             	mov    0xc(%rax),%edx
    2e6a:	83 c2 01             	add    $0x1,%edx
    2e6d:	89 50 0c             	mov    %edx,0xc(%rax)
    2e70:	48 8b 05 00 00 00 00 	mov    0x0(%rip),%rax        # 2e77 <try_swap+0xaf7>
    2e77:	8b 55 c8             	mov    -0x38(%rbp),%edx
    2e7a:	48 63 d2             	movslq %edx,%rdx
    2e7d:	48 c1 e2 03          	shl    $0x3,%rdx
    2e81:	48 01 d0             	add    %rdx,%rax
    2e84:	48 8b 08             	mov    (%rax),%rcx
    2e87:	8b 45 c4             	mov    -0x3c(%rbp),%eax
    2e8a:	48 63 d0             	movslq %eax,%rdx
    2e8d:	48 89 d0             	mov    %rdx,%rax
    2e90:	48 01 c0             	add    %rax,%rax
    2e93:	48 01 d0             	add    %rdx,%rax
    2e96:	48 c1 e0 03          	shl    $0x3,%rax
    2e9a:	48 01 c8             	add    %rcx,%rax
    2e9d:	8b 50 0c             	mov    0xc(%rax),%edx
    2ea0:	83 ea 01             	sub    $0x1,%edx
    2ea3:	89 50 0c             	mov    %edx,0xc(%rax)
    2ea6:	e9 53 01 00 00       	jmpq   2ffe <try_swap+0xc7e>
    2eab:	c7 45 dc 00 00 00 00 	movl   $0x0,-0x24(%rbp)
    2eb2:	eb 39                	jmp    2eed <try_swap+0xb6d>
    2eb4:	48 8b 05 00 00 00 00 	mov    0x0(%rip),%rax        # 2ebb <try_swap+0xb3b>
    2ebb:	8b 55 dc             	mov    -0x24(%rbp),%edx
    2ebe:	48 63 d2             	movslq %edx,%rdx
    2ec1:	48 c1 e2 02          	shl    $0x2,%rdx
    2ec5:	48 01 d0             	add    %rdx,%rax
    2ec8:	8b 00                	mov    (%rax),%eax
    2eca:	89 45 b4             	mov    %eax,-0x4c(%rbp)
    2ecd:	48 8b 05 00 00 00 00 	mov    0x0(%rip),%rax        # 2ed4 <try_swap+0xb54>
    2ed4:	8b 55 b4             	mov    -0x4c(%rbp),%edx
    2ed7:	48 63 d2             	movslq %edx,%rdx
    2eda:	48 c1 e2 02          	shl    $0x2,%rdx
    2ede:	48 01 c2             	add    %rax,%rdx
    2ee1:	8b 05 00 00 00 00    	mov    0x0(%rip),%eax        # 2ee7 <try_swap+0xb67>
    2ee7:	89 02                	mov    %eax,(%rdx)
    2ee9:	83 45 dc 01          	addl   $0x1,-0x24(%rbp)
    2eed:	8b 45 dc             	mov    -0x24(%rbp),%eax
    2ef0:	3b 45 b8             	cmp    -0x48(%rbp),%eax
    2ef3:	7c bf                	jl     2eb4 <try_swap+0xb34>
    2ef5:	48 8b 0d 00 00 00 00 	mov    0x0(%rip),%rcx        # 2efc <try_swap+0xb7c>
    2efc:	8b 45 ec             	mov    -0x14(%rbp),%eax
    2eff:	48 63 d0             	movslq %eax,%rdx
    2f02:	48 89 d0             	mov    %rdx,%rax
    2f05:	48 c1 e0 02          	shl    $0x2,%rax
    2f09:	48 01 d0             	add    %rdx,%rax
    2f0c:	48 c1 e0 03          	shl    $0x3,%rax
    2f10:	48 8d 14 01          	lea    (%rcx,%rax,1),%rdx
    2f14:	8b 45 c8             	mov    -0x38(%rbp),%eax
    2f17:	89 42 18             	mov    %eax,0x18(%rdx)
    2f1a:	48 8b 0d 00 00 00 00 	mov    0x0(%rip),%rcx        # 2f21 <try_swap+0xba1>
    2f21:	8b 45 ec             	mov    -0x14(%rbp),%eax
    2f24:	48 63 d0             	movslq %eax,%rdx
    2f27:	48 89 d0             	mov    %rdx,%rax
    2f2a:	48 c1 e0 02          	shl    $0x2,%rax
    2f2e:	48 01 d0             	add    %rdx,%rax
    2f31:	48 c1 e0 03          	shl    $0x3,%rax
    2f35:	48 8d 14 01          	lea    (%rcx,%rax,1),%rdx
    2f39:	8b 45 c4             	mov    -0x3c(%rbp),%eax
    2f3c:	89 42 1c             	mov    %eax,0x1c(%rdx)
    2f3f:	48 8b 0d 00 00 00 00 	mov    0x0(%rip),%rcx        # 2f46 <try_swap+0xbc6>
    2f46:	8b 45 ec             	mov    -0x14(%rbp),%eax
    2f49:	48 63 d0             	movslq %eax,%rdx
    2f4c:	48 89 d0             	mov    %rdx,%rax
    2f4f:	48 c1 e0 02          	shl    $0x2,%rax
    2f53:	48 01 d0             	add    %rdx,%rax
    2f56:	48 c1 e0 03          	shl    $0x3,%rax
    2f5a:	48 8d 14 01          	lea    (%rcx,%rax,1),%rdx
    2f5e:	8b 45 c0             	mov    -0x40(%rbp),%eax
    2f61:	89 42 20             	mov    %eax,0x20(%rdx)
    2f64:	83 7d e4 ff          	cmpl   $0xffffffff,-0x1c(%rbp)
    2f68:	74 6f                	je     2fd9 <try_swap+0xc59>
    2f6a:	48 8b 0d 00 00 00 00 	mov    0x0(%rip),%rcx        # 2f71 <try_swap+0xbf1>
    2f71:	8b 45 e4             	mov    -0x1c(%rbp),%eax
    2f74:	48 63 d0             	movslq %eax,%rdx
    2f77:	48 89 d0             	mov    %rdx,%rax
    2f7a:	48 c1 e0 02          	shl    $0x2,%rax
    2f7e:	48 01 d0             	add    %rdx,%rax
    2f81:	48 c1 e0 03          	shl    $0x3,%rax
    2f85:	48 8d 14 01          	lea    (%rcx,%rax,1),%rdx
    2f89:	8b 45 a8             	mov    -0x58(%rbp),%eax
    2f8c:	89 42 18             	mov    %eax,0x18(%rdx)
    2f8f:	48 8b 0d 00 00 00 00 	mov    0x0(%rip),%rcx        # 2f96 <try_swap+0xc16>
    2f96:	8b 45 e4             	mov    -0x1c(%rbp),%eax
    2f99:	48 63 d0             	movslq %eax,%rdx
    2f9c:	48 89 d0             	mov    %rdx,%rax
    2f9f:	48 c1 e0 02          	shl    $0x2,%rax
    2fa3:	48 01 d0             	add    %rdx,%rax
    2fa6:	48 c1 e0 03          	shl    $0x3,%rax
    2faa:	48 8d 14 01          	lea    (%rcx,%rax,1),%rdx
    2fae:	8b 45 a4             	mov    -0x5c(%rbp),%eax
    2fb1:	89 42 1c             	mov    %eax,0x1c(%rdx)
    2fb4:	48 8b 0d 00 00 00 00 	mov    0x0(%rip),%rcx        # 2fbb <try_swap+0xc3b>
    2fbb:	8b 45 e4             	mov    -0x1c(%rbp),%eax
    2fbe:	48 63 d0             	movslq %eax,%rdx
    2fc1:	48 89 d0             	mov    %rdx,%rax
    2fc4:	48 c1 e0 02          	shl    $0x2,%rax
    2fc8:	48 01 d0             	add    %rdx,%rax
    2fcb:	48 c1 e0 03          	shl    $0x3,%rax
    2fcf:	48 8d 14 01          	lea    (%rcx,%rax,1),%rdx
    2fd3:	8b 45 e8             	mov    -0x18(%rbp),%eax
    2fd6:	89 42 20             	mov    %eax,0x20(%rdx)
    2fd9:	83 bd 6c ff ff ff 01 	cmpl   $0x1,-0x94(%rbp)
    2fe0:	75 1c                	jne    2ffe <try_swap+0xc7e>
    2fe2:	48 8b 8d 58 ff ff ff 	mov    -0xa8(%rbp),%rcx
    2fe9:	48 8b 85 60 ff ff ff 	mov    -0xa0(%rbp),%rax
    2ff0:	8b 55 10             	mov    0x10(%rbp),%edx
    2ff3:	48 89 ce             	mov    %rcx,%rsi
    2ff6:	48 89 c7             	mov    %rax,%rdi
    2ff9:	e8 ec 00 00 00       	callq  30ea <restore_region_occ>
    2ffe:	8b 45 ac             	mov    -0x54(%rbp),%eax
    3001:	48 8b 5d f8          	mov    -0x8(%rbp),%rbx
    3005:	c9                   	leaveq 
    3006:	c3                   	retq   

0000000000003007 <save_region_occ>:
    3007:	55                   	push   %rbp
    3008:	48 89 e5             	mov    %rsp,%rbp
    300b:	48 89 7d e8          	mov    %rdi,-0x18(%rbp)
    300f:	48 89 75 e0          	mov    %rsi,-0x20(%rbp)
    3013:	89 55 dc             	mov    %edx,-0x24(%rbp)
    3016:	c7 45 fc 00 00 00 00 	movl   $0x0,-0x4(%rbp)
    301d:	e9 ba 00 00 00       	jmpq   30dc <save_region_occ+0xd5>
    3022:	c7 45 f8 00 00 00 00 	movl   $0x0,-0x8(%rbp)
    3029:	e9 9e 00 00 00       	jmpq   30cc <save_region_occ+0xc5>
    302e:	8b 45 fc             	mov    -0x4(%rbp),%eax
    3031:	48 98                	cltq   
    3033:	48 8d 14 c5 00 00 00 	lea    0x0(,%rax,8),%rdx
    303a:	00 
    303b:	48 8b 45 e8          	mov    -0x18(%rbp),%rax
    303f:	48 01 d0             	add    %rdx,%rax
    3042:	48 8b 00             	mov    (%rax),%rax
    3045:	8b 55 f8             	mov    -0x8(%rbp),%edx
    3048:	48 63 d2             	movslq %edx,%rdx
    304b:	48 c1 e2 02          	shl    $0x2,%rdx
    304f:	48 01 c2             	add    %rax,%rdx
    3052:	48 8b 05 00 00 00 00 	mov    0x0(%rip),%rax        # 3059 <save_region_occ+0x52>
    3059:	8b 4d fc             	mov    -0x4(%rbp),%ecx
    305c:	48 63 c9             	movslq %ecx,%rcx
    305f:	48 c1 e1 03          	shl    $0x3,%rcx
    3063:	48 01 c8             	add    %rcx,%rax
    3066:	48 8b 00             	mov    (%rax),%rax
    3069:	8b 4d f8             	mov    -0x8(%rbp),%ecx
    306c:	48 63 c9             	movslq %ecx,%rcx
    306f:	48 c1 e1 04          	shl    $0x4,%rcx
    3073:	48 01 c8             	add    %rcx,%rax
    3076:	8b 40 08             	mov    0x8(%rax),%eax
    3079:	89 02                	mov    %eax,(%rdx)
    307b:	8b 45 fc             	mov    -0x4(%rbp),%eax
    307e:	48 98                	cltq   
    3080:	48 8d 14 c5 00 00 00 	lea    0x0(,%rax,8),%rdx
    3087:	00 
    3088:	48 8b 45 e0          	mov    -0x20(%rbp),%rax
    308c:	48 01 d0             	add    %rdx,%rax
    308f:	48 8b 00             	mov    (%rax),%rax
    3092:	8b 55 f8             	mov    -0x8(%rbp),%edx
    3095:	48 63 d2             	movslq %edx,%rdx
    3098:	48 c1 e2 02          	shl    $0x2,%rdx
    309c:	48 01 c2             	add    %rax,%rdx
    309f:	48 8b 05 00 00 00 00 	mov    0x0(%rip),%rax        # 30a6 <save_region_occ+0x9f>
    30a6:	8b 4d fc             	mov    -0x4(%rbp),%ecx
    30a9:	48 63 c9             	movslq %ecx,%rcx
    30ac:	48 c1 e1 03          	shl    $0x3,%rcx
    30b0:	48 01 c8             	add    %rcx,%rax
    30b3:	48 8b 00             	mov    (%rax),%rax
    30b6:	8b 4d f8             	mov    -0x8(%rbp),%ecx
    30b9:	48 63 c9             	movslq %ecx,%rcx
    30bc:	48 c1 e1 04          	shl    $0x4,%rcx
    30c0:	48 01 c8             	add    %rcx,%rax
    30c3:	8b 40 08             	mov    0x8(%rax),%eax
    30c6:	89 02                	mov    %eax,(%rdx)
    30c8:	83 45 f8 01          	addl   $0x1,-0x8(%rbp)
    30cc:	8b 45 f8             	mov    -0x8(%rbp),%eax
    30cf:	3b 45 dc             	cmp    -0x24(%rbp),%eax
    30d2:	0f 8c 56 ff ff ff    	jl     302e <save_region_occ+0x27>
    30d8:	83 45 fc 01          	addl   $0x1,-0x4(%rbp)
    30dc:	8b 45 fc             	mov    -0x4(%rbp),%eax
    30df:	3b 45 dc             	cmp    -0x24(%rbp),%eax
    30e2:	0f 8c 3a ff ff ff    	jl     3022 <save_region_occ+0x1b>
    30e8:	5d                   	pop    %rbp
    30e9:	c3                   	retq   

00000000000030ea <restore_region_occ>:
    30ea:	55                   	push   %rbp
    30eb:	48 89 e5             	mov    %rsp,%rbp
    30ee:	48 89 7d e8          	mov    %rdi,-0x18(%rbp)
    30f2:	48 89 75 e0          	mov    %rsi,-0x20(%rbp)
    30f6:	89 55 dc             	mov    %edx,-0x24(%rbp)
    30f9:	c7 45 fc 00 00 00 00 	movl   $0x0,-0x4(%rbp)
    3100:	e9 ba 00 00 00       	jmpq   31bf <restore_region_occ+0xd5>
    3105:	c7 45 f8 00 00 00 00 	movl   $0x0,-0x8(%rbp)
    310c:	e9 9e 00 00 00       	jmpq   31af <restore_region_occ+0xc5>
    3111:	48 8b 05 00 00 00 00 	mov    0x0(%rip),%rax        # 3118 <restore_region_occ+0x2e>
    3118:	8b 55 fc             	mov    -0x4(%rbp),%edx
    311b:	48 63 d2             	movslq %edx,%rdx
    311e:	48 c1 e2 03          	shl    $0x3,%rdx
    3122:	48 01 d0             	add    %rdx,%rax
    3125:	48 8b 00             	mov    (%rax),%rax
    3128:	8b 55 f8             	mov    -0x8(%rbp),%edx
    312b:	48 63 d2             	movslq %edx,%rdx
    312e:	48 c1 e2 04          	shl    $0x4,%rdx
    3132:	48 01 c2             	add    %rax,%rdx
    3135:	8b 45 fc             	mov    -0x4(%rbp),%eax
    3138:	48 98                	cltq   
    313a:	48 8d 0c c5 00 00 00 	lea    0x0(,%rax,8),%rcx
    3141:	00 
    3142:	48 8b 45 e8          	mov    -0x18(%rbp),%rax
    3146:	48 01 c8             	add    %rcx,%rax
    3149:	48 8b 00             	mov    (%rax),%rax
    314c:	8b 4d f8             	mov    -0x8(%rbp),%ecx
    314f:	48 63 c9             	movslq %ecx,%rcx
    3152:	48 c1 e1 02          	shl    $0x2,%rcx
    3156:	48 01 c8             	add    %rcx,%rax
    3159:	8b 00                	mov    (%rax),%eax
    315b:	89 42 08             	mov    %eax,0x8(%rdx)
    315e:	48 8b 05 00 00 00 00 	mov    0x0(%rip),%rax        # 3165 <restore_region_occ+0x7b>
    3165:	8b 55 fc             	mov    -0x4(%rbp),%edx
    3168:	48 63 d2             	movslq %edx,%rdx
    316b:	48 c1 e2 03          	shl    $0x3,%rdx
    316f:	48 01 d0             	add    %rdx,%rax
    3172:	48 8b 00             	mov    (%rax),%rax
    3175:	8b 55 f8             	mov    -0x8(%rbp),%edx
    3178:	48 63 d2             	movslq %edx,%rdx
    317b:	48 c1 e2 04          	shl    $0x4,%rdx
    317f:	48 01 c2             	add    %rax,%rdx
    3182:	8b 45 fc             	mov    -0x4(%rbp),%eax
    3185:	48 98                	cltq   
    3187:	48 8d 0c c5 00 00 00 	lea    0x0(,%rax,8),%rcx
    318e:	00 
    318f:	48 8b 45 e0          	mov    -0x20(%rbp),%rax
    3193:	48 01 c8             	add    %rcx,%rax
    3196:	48 8b 00             	mov    (%rax),%rax
    3199:	8b 4d f8             	mov    -0x8(%rbp),%ecx
    319c:	48 63 c9             	movslq %ecx,%rcx
    319f:	48 c1 e1 02          	shl    $0x2,%rcx
    31a3:	48 01 c8             	add    %rcx,%rax
    31a6:	8b 00                	mov    (%rax),%eax
    31a8:	89 42 08             	mov    %eax,0x8(%rdx)
    31ab:	83 45 f8 01          	addl   $0x1,-0x8(%rbp)
    31af:	8b 45 f8             	mov    -0x8(%rbp),%eax
    31b2:	3b 45 dc             	cmp    -0x24(%rbp),%eax
    31b5:	0f 8c 56 ff ff ff    	jl     3111 <restore_region_occ+0x27>
    31bb:	83 45 fc 01          	addl   $0x1,-0x4(%rbp)
    31bf:	8b 45 fc             	mov    -0x4(%rbp),%eax
    31c2:	3b 45 dc             	cmp    -0x24(%rbp),%eax
    31c5:	0f 8c 3a ff ff ff    	jl     3105 <restore_region_occ+0x1b>
    31cb:	5d                   	pop    %rbp
    31cc:	c3                   	retq   

00000000000031cd <find_affected_nets>:
    31cd:	55                   	push   %rbp
    31ce:	48 89 e5             	mov    %rsp,%rbp
    31d1:	48 83 ec 30          	sub    $0x30,%rsp
    31d5:	48 89 7d e8          	mov    %rdi,-0x18(%rbp)
    31d9:	48 89 75 e0          	mov    %rsi,-0x20(%rbp)
    31dd:	89 55 dc             	mov    %edx,-0x24(%rbp)
    31e0:	89 4d d8             	mov    %ecx,-0x28(%rbp)
    31e3:	44 89 45 d4          	mov    %r8d,-0x2c(%rbp)
    31e7:	c7 45 f8 00 00 00 00 	movl   $0x0,-0x8(%rbp)
    31ee:	c7 45 fc 00 00 00 00 	movl   $0x0,-0x4(%rbp)
    31f5:	e9 e0 00 00 00       	jmpq   32da <find_affected_nets+0x10d>
    31fa:	48 8b 0d 00 00 00 00 	mov    0x0(%rip),%rcx        # 3201 <find_affected_nets+0x34>
    3201:	8b 45 dc             	mov    -0x24(%rbp),%eax
    3204:	48 63 d0             	movslq %eax,%rdx
    3207:	48 89 d0             	mov    %rdx,%rax
    320a:	48 c1 e0 02          	shl    $0x2,%rax
    320e:	48 01 d0             	add    %rdx,%rax
    3211:	48 c1 e0 03          	shl    $0x3,%rax
    3215:	48 01 c8             	add    %rcx,%rax
    3218:	48 8b 40 10          	mov    0x10(%rax),%rax
    321c:	8b 55 fc             	mov    -0x4(%rbp),%edx
    321f:	48 63 d2             	movslq %edx,%rdx
    3222:	48 c1 e2 02          	shl    $0x2,%rdx
    3226:	48 01 d0             	add    %rdx,%rax
    3229:	8b 00                	mov    (%rax),%eax
    322b:	89 45 f0             	mov    %eax,-0x10(%rbp)
    322e:	83 7d f0 ff          	cmpl   $0xffffffff,-0x10(%rbp)
    3232:	75 05                	jne    3239 <find_affected_nets+0x6c>
    3234:	e9 9d 00 00 00       	jmpq   32d6 <find_affected_nets+0x109>
    3239:	48 8b 0d 00 00 00 00 	mov    0x0(%rip),%rcx        # 3240 <find_affected_nets+0x73>
    3240:	8b 45 f0             	mov    -0x10(%rbp),%eax
    3243:	48 63 d0             	movslq %eax,%rdx
    3246:	48 89 d0             	mov    %rdx,%rax
    3249:	48 c1 e0 02          	shl    $0x2,%rax
    324d:	48 01 d0             	add    %rdx,%rax
    3250:	48 c1 e0 03          	shl    $0x3,%rax
    3254:	48 01 c8             	add    %rcx,%rax
    3257:	8b 40 20             	mov    0x20(%rax),%eax
    325a:	85 c0                	test   %eax,%eax
    325c:	74 02                	je     3260 <find_affected_nets+0x93>
    325e:	eb 76                	jmp    32d6 <find_affected_nets+0x109>
    3260:	48 8b 05 00 00 00 00 	mov    0x0(%rip),%rax        # 3267 <find_affected_nets+0x9a>
    3267:	8b 55 f0             	mov    -0x10(%rbp),%edx
    326a:	48 63 d2             	movslq %edx,%rdx
    326d:	48 c1 e2 02          	shl    $0x2,%rdx
    3271:	48 01 d0             	add    %rdx,%rax
    3274:	f3 0f 10 00          	movss  (%rax),%xmm0
    3278:	66 0f ef c9          	pxor   %xmm1,%xmm1
    327c:	0f 2e c1             	ucomiss %xmm1,%xmm0
    327f:	76 02                	jbe    3283 <find_affected_nets+0xb6>
    3281:	eb 53                	jmp    32d6 <find_affected_nets+0x109>
    3283:	8b 45 f8             	mov    -0x8(%rbp),%eax
    3286:	48 98                	cltq   
    3288:	48 8d 14 85 00 00 00 	lea    0x0(,%rax,4),%rdx
    328f:	00 
    3290:	48 8b 45 e8          	mov    -0x18(%rbp),%rax
    3294:	48 01 c2             	add    %rax,%rdx
    3297:	8b 45 f0             	mov    -0x10(%rbp),%eax
    329a:	89 02                	mov    %eax,(%rdx)
    329c:	8b 45 f8             	mov    -0x8(%rbp),%eax
    329f:	48 98                	cltq   
    32a1:	48 8d 14 85 00 00 00 	lea    0x0(,%rax,4),%rdx
    32a8:	00 
    32a9:	48 8b 45 e0          	mov    -0x20(%rbp),%rax
    32ad:	48 01 d0             	add    %rdx,%rax
    32b0:	c7 00 00 00 00 00    	movl   $0x0,(%rax)
    32b6:	83 45 f8 01          	addl   $0x1,-0x8(%rbp)
    32ba:	48 8b 05 00 00 00 00 	mov    0x0(%rip),%rax        # 32c1 <find_affected_nets+0xf4>
    32c1:	8b 55 f0             	mov    -0x10(%rbp),%edx
    32c4:	48 63 d2             	movslq %edx,%rdx
    32c7:	48 c1 e2 02          	shl    $0x2,%rdx
    32cb:	48 01 c2             	add    %rax,%rdx
    32ce:	8b 05 00 00 00 00    	mov    0x0(%rip),%eax        # 32d4 <find_affected_nets+0x107>
    32d4:	89 02                	mov    %eax,(%rdx)
    32d6:	83 45 fc 01          	addl   $0x1,-0x4(%rbp)
    32da:	8b 45 fc             	mov    -0x4(%rbp),%eax
    32dd:	3b 45 d4             	cmp    -0x2c(%rbp),%eax
    32e0:	0f 8c 14 ff ff ff    	jl     31fa <find_affected_nets+0x2d>
    32e6:	83 7d d8 ff          	cmpl   $0xffffffff,-0x28(%rbp)
    32ea:	0f 84 8e 01 00 00    	je     347e <find_affected_nets+0x2b1>
    32f0:	c7 45 fc 00 00 00 00 	movl   $0x0,-0x4(%rbp)
    32f7:	e9 76 01 00 00       	jmpq   3472 <find_affected_nets+0x2a5>
    32fc:	48 8b 0d 00 00 00 00 	mov    0x0(%rip),%rcx        # 3303 <find_affected_nets+0x136>
    3303:	8b 45 d8             	mov    -0x28(%rbp),%eax
    3306:	48 63 d0             	movslq %eax,%rdx
    3309:	48 89 d0             	mov    %rdx,%rax
    330c:	48 c1 e0 02          	shl    $0x2,%rax
    3310:	48 01 d0             	add    %rdx,%rax
    3313:	48 c1 e0 03          	shl    $0x3,%rax
    3317:	48 01 c8             	add    %rcx,%rax
    331a:	48 8b 40 10          	mov    0x10(%rax),%rax
    331e:	8b 55 fc             	mov    -0x4(%rbp),%edx
    3321:	48 63 d2             	movslq %edx,%rdx
    3324:	48 c1 e2 02          	shl    $0x2,%rdx
    3328:	48 01 d0             	add    %rdx,%rax
    332b:	8b 00                	mov    (%rax),%eax
    332d:	89 45 f0             	mov    %eax,-0x10(%rbp)
    3330:	83 7d f0 ff          	cmpl   $0xffffffff,-0x10(%rbp)
    3334:	75 05                	jne    333b <find_affected_nets+0x16e>
    3336:	e9 33 01 00 00       	jmpq   346e <find_affected_nets+0x2a1>
    333b:	48 8b 0d 00 00 00 00 	mov    0x0(%rip),%rcx        # 3342 <find_affected_nets+0x175>
    3342:	8b 45 f0             	mov    -0x10(%rbp),%eax
    3345:	48 63 d0             	movslq %eax,%rdx
    3348:	48 89 d0             	mov    %rdx,%rax
    334b:	48 c1 e0 02          	shl    $0x2,%rax
    334f:	48 01 d0             	add    %rdx,%rax
    3352:	48 c1 e0 03          	shl    $0x3,%rax
    3356:	48 01 c8             	add    %rcx,%rax
    3359:	8b 40 20             	mov    0x20(%rax),%eax
    335c:	85 c0                	test   %eax,%eax
    335e:	74 05                	je     3365 <find_affected_nets+0x198>
    3360:	e9 09 01 00 00       	jmpq   346e <find_affected_nets+0x2a1>
    3365:	48 8b 05 00 00 00 00 	mov    0x0(%rip),%rax        # 336c <find_affected_nets+0x19f>
    336c:	8b 55 f0             	mov    -0x10(%rbp),%edx
    336f:	48 63 d2             	movslq %edx,%rdx
    3372:	48 c1 e2 02          	shl    $0x2,%rdx
    3376:	48 01 d0             	add    %rdx,%rax
    3379:	f3 0f 10 00          	movss  (%rax),%xmm0
    337d:	66 0f ef c9          	pxor   %xmm1,%xmm1
    3381:	0f 2e c1             	ucomiss %xmm1,%xmm0
    3384:	0f 86 91 00 00 00    	jbe    341b <find_affected_nets+0x24e>
    338a:	c7 45 f4 00 00 00 00 	movl   $0x0,-0xc(%rbp)
    3391:	eb 57                	jmp    33ea <find_affected_nets+0x21d>
    3393:	8b 45 f4             	mov    -0xc(%rbp),%eax
    3396:	48 98                	cltq   
    3398:	48 8d 14 85 00 00 00 	lea    0x0(,%rax,4),%rdx
    339f:	00 
    33a0:	48 8b 45 e8          	mov    -0x18(%rbp),%rax
    33a4:	48 01 d0             	add    %rdx,%rax
    33a7:	8b 00                	mov    (%rax),%eax
    33a9:	3b 45 f0             	cmp    -0x10(%rbp),%eax
    33ac:	75 38                	jne    33e6 <find_affected_nets+0x219>
    33ae:	8b 45 f4             	mov    -0xc(%rbp),%eax
    33b1:	48 98                	cltq   
    33b3:	48 8d 14 85 00 00 00 	lea    0x0(,%rax,4),%rdx
    33ba:	00 
    33bb:	48 8b 45 e0          	mov    -0x20(%rbp),%rax
    33bf:	48 01 d0             	add    %rdx,%rax
    33c2:	8b 00                	mov    (%rax),%eax
    33c4:	85 c0                	test   %eax,%eax
    33c6:	75 1c                	jne    33e4 <find_affected_nets+0x217>
    33c8:	8b 45 f4             	mov    -0xc(%rbp),%eax
    33cb:	48 98                	cltq   
    33cd:	48 8d 14 85 00 00 00 	lea    0x0(,%rax,4),%rdx
    33d4:	00 
    33d5:	48 8b 45 e0          	mov    -0x20(%rbp),%rax
    33d9:	48 01 d0             	add    %rdx,%rax
    33dc:	c7 00 02 00 00 00    	movl   $0x2,(%rax)
    33e2:	eb 0e                	jmp    33f2 <find_affected_nets+0x225>
    33e4:	eb 0c                	jmp    33f2 <find_affected_nets+0x225>
    33e6:	83 45 f4 01          	addl   $0x1,-0xc(%rbp)
    33ea:	8b 45 f4             	mov    -0xc(%rbp),%eax
    33ed:	3b 45 f8             	cmp    -0x8(%rbp),%eax
    33f0:	7c a1                	jl     3393 <find_affected_nets+0x1c6>
    33f2:	8b 45 f4             	mov    -0xc(%rbp),%eax
    33f5:	3b 45 f8             	cmp    -0x8(%rbp),%eax
    33f8:	7e 74                	jle    346e <find_affected_nets+0x2a1>
    33fa:	8b 55 f8             	mov    -0x8(%rbp),%edx
    33fd:	8b 45 f4             	mov    -0xc(%rbp),%eax
    3400:	89 c6                	mov    %eax,%esi
    3402:	bf 00 00 00 00       	mov    $0x0,%edi
    3407:	b8 00 00 00 00       	mov    $0x0,%eax
    340c:	e8 00 00 00 00       	callq  3411 <find_affected_nets+0x244>
    3411:	bf 01 00 00 00       	mov    $0x1,%edi
    3416:	e8 00 00 00 00       	callq  341b <find_affected_nets+0x24e>
    341b:	8b 45 f8             	mov    -0x8(%rbp),%eax
    341e:	48 98                	cltq   
    3420:	48 8d 14 85 00 00 00 	lea    0x0(,%rax,4),%rdx
    3427:	00 
    3428:	48 8b 45 e8          	mov    -0x18(%rbp),%rax
    342c:	48 01 c2             	add    %rax,%rdx
    342f:	8b 45 f0             	mov    -0x10(%rbp),%eax
    3432:	89 02                	mov    %eax,(%rdx)
    3434:	8b 45 f8             	mov    -0x8(%rbp),%eax
    3437:	48 98                	cltq   
    3439:	48 8d 14 85 00 00 00 	lea    0x0(,%rax,4),%rdx
    3440:	00 
    3441:	48 8b 45 e0          	mov    -0x20(%rbp),%rax
    3445:	48 01 d0             	add    %rdx,%rax
    3448:	c7 00 01 00 00 00    	movl   $0x1,(%rax)
    344e:	83 45 f8 01          	addl   $0x1,-0x8(%rbp)
    3452:	48 8b 05 00 00 00 00 	mov    0x0(%rip),%rax        # 3459 <find_affected_nets+0x28c>
    3459:	8b 55 f0             	mov    -0x10(%rbp),%edx
    345c:	48 63 d2             	movslq %edx,%rdx
    345f:	48 c1 e2 02          	shl    $0x2,%rdx
    3463:	48 01 c2             	add    %rax,%rdx
    3466:	8b 05 00 00 00 00    	mov    0x0(%rip),%eax        # 346c <find_affected_nets+0x29f>
    346c:	89 02                	mov    %eax,(%rdx)
    346e:	83 45 fc 01          	addl   $0x1,-0x4(%rbp)
    3472:	8b 45 fc             	mov    -0x4(%rbp),%eax
    3475:	3b 45 d4             	cmp    -0x2c(%rbp),%eax
    3478:	0f 8c 7e fe ff ff    	jl     32fc <find_affected_nets+0x12f>
    347e:	8b 45 f8             	mov    -0x8(%rbp),%eax
    3481:	c9                   	leaveq 
    3482:	c3                   	retq   

0000000000003483 <find_to>:
    3483:	55                   	push   %rbp
    3484:	48 89 e5             	mov    %rsp,%rbp
    3487:	53                   	push   %rbx
    3488:	48 83 ec 78          	sub    $0x78,%rsp
    348c:	89 7d ac             	mov    %edi,-0x54(%rbp)
    348f:	89 75 a8             	mov    %esi,-0x58(%rbp)
    3492:	48 89 55 a0          	mov    %rdx,-0x60(%rbp)
    3496:	f3 0f 11 45 9c       	movss  %xmm0,-0x64(%rbp)
    349b:	48 89 4d 90          	mov    %rcx,-0x70(%rbp)
    349f:	4c 89 45 88          	mov    %r8,-0x78(%rbp)
    34a3:	4c 89 4d 80          	mov    %r9,-0x80(%rbp)
    34a7:	8b 05 00 00 00 00    	mov    0x0(%rip),%eax        # 34ad <find_to+0x2a>
    34ad:	66 0f ef c0          	pxor   %xmm0,%xmm0
    34b1:	f3 0f 2a c0          	cvtsi2ss %eax,%xmm0
    34b5:	0f 2e 45 9c          	ucomiss -0x64(%rbp),%xmm0
    34b9:	76 0d                	jbe    34c8 <find_to+0x45>
    34bb:	8b 45 9c             	mov    -0x64(%rbp),%eax
    34be:	89 45 98             	mov    %eax,-0x68(%rbp)
    34c1:	f3 0f 2c 45 98       	cvttss2si -0x68(%rbp),%eax
    34c6:	eb 12                	jmp    34da <find_to+0x57>
    34c8:	8b 05 00 00 00 00    	mov    0x0(%rip),%eax        # 34ce <find_to+0x4b>
    34ce:	66 0f ef c0          	pxor   %xmm0,%xmm0
    34d2:	f3 0f 2a c0          	cvtsi2ss %eax,%xmm0
    34d6:	f3 0f 2c c0          	cvttss2si %xmm0,%eax
    34da:	89 45 e0             	mov    %eax,-0x20(%rbp)
    34dd:	8b 05 00 00 00 00    	mov    0x0(%rip),%eax        # 34e3 <find_to+0x60>
    34e3:	66 0f ef c0          	pxor   %xmm0,%xmm0
    34e7:	f3 0f 2a c0          	cvtsi2ss %eax,%xmm0
    34eb:	0f 2e 45 9c          	ucomiss -0x64(%rbp),%xmm0
    34ef:	76 0d                	jbe    34fe <find_to+0x7b>
    34f1:	8b 45 9c             	mov    -0x64(%rbp),%eax
    34f4:	89 45 98             	mov    %eax,-0x68(%rbp)
    34f7:	f3 0f 2c 45 98       	cvttss2si -0x68(%rbp),%eax
    34fc:	eb 12                	jmp    3510 <find_to+0x8d>
    34fe:	8b 05 00 00 00 00    	mov    0x0(%rip),%eax        # 3504 <find_to+0x81>
    3504:	66 0f ef c0          	pxor   %xmm0,%xmm0
    3508:	f3 0f 2a c0          	cvtsi2ss %eax,%xmm0
    350c:	f3 0f 2c c0          	cvttss2si %xmm0,%eax
    3510:	89 45 dc             	mov    %eax,-0x24(%rbp)
    3513:	8b 45 ac             	mov    -0x54(%rbp),%eax
    3516:	2b 45 e0             	sub    -0x20(%rbp),%eax
    3519:	ba 01 00 00 00       	mov    $0x1,%edx
    351e:	85 c0                	test   %eax,%eax
    3520:	0f 4e c2             	cmovle %edx,%eax
    3523:	89 45 d8             	mov    %eax,-0x28(%rbp)
    3526:	8b 55 ac             	mov    -0x54(%rbp),%edx
    3529:	8b 45 e0             	mov    -0x20(%rbp),%eax
    352c:	01 c2                	add    %eax,%edx
    352e:	8b 05 00 00 00 00    	mov    0x0(%rip),%eax        # 3534 <find_to+0xb1>
    3534:	39 c2                	cmp    %eax,%edx
    3536:	0f 4e c2             	cmovle %edx,%eax
    3539:	89 45 d4             	mov    %eax,-0x2c(%rbp)
    353c:	8b 45 a8             	mov    -0x58(%rbp),%eax
    353f:	2b 45 dc             	sub    -0x24(%rbp),%eax
    3542:	ba 01 00 00 00       	mov    $0x1,%edx
    3547:	85 c0                	test   %eax,%eax
    3549:	0f 4e c2             	cmovle %edx,%eax
    354c:	89 45 d0             	mov    %eax,-0x30(%rbp)
    354f:	8b 55 a8             	mov    -0x58(%rbp),%edx
    3552:	8b 45 dc             	mov    -0x24(%rbp),%eax
    3555:	01 c2                	add    %eax,%edx
    3557:	8b 05 00 00 00 00    	mov    0x0(%rip),%eax        # 355d <find_to+0xda>
    355d:	39 c2                	cmp    %eax,%edx
    355f:	0f 4e c2             	cmovle %edx,%eax
    3562:	89 45 cc             	mov    %eax,-0x34(%rbp)
    3565:	c7 45 ec 00 00 00 00 	movl   $0x0,-0x14(%rbp)
    356c:	c7 45 e4 00 00 00 00 	movl   $0x0,-0x1c(%rbp)
    3573:	48 8b 05 00 00 00 00 	mov    0x0(%rip),%rax        # 357a <find_to+0xf7>
    357a:	48 39 45 a0          	cmp    %rax,-0x60(%rbp)
    357e:	0f 84 b9 00 00 00    	je     363d <find_to+0x1ba>
    3584:	8b 45 d8             	mov    -0x28(%rbp),%eax
    3587:	89 45 e8             	mov    %eax,-0x18(%rbp)
    358a:	eb 49                	jmp    35d5 <find_to+0x152>
    358c:	48 8b 05 00 00 00 00 	mov    0x0(%rip),%rax        # 3593 <find_to+0x110>
    3593:	8b 55 e8             	mov    -0x18(%rbp),%edx
    3596:	48 63 d2             	movslq %edx,%rdx
    3599:	48 c1 e2 03          	shl    $0x3,%rdx
    359d:	48 01 d0             	add    %rdx,%rax
    35a0:	48 8b 00             	mov    (%rax),%rax
    35a3:	48 83 c0 18          	add    $0x18,%rax
    35a7:	48 8b 00             	mov    (%rax),%rax
    35aa:	48 3b 45 a0          	cmp    -0x60(%rbp),%rax
    35ae:	75 21                	jne    35d1 <find_to+0x14e>
    35b0:	83 45 ec 01          	addl   $0x1,-0x14(%rbp)
    35b4:	8b 45 e4             	mov    -0x1c(%rbp),%eax
    35b7:	48 98                	cltq   
    35b9:	48 8d 14 85 00 00 00 	lea    0x0(,%rax,4),%rdx
    35c0:	00 
    35c1:	48 8b 45 90          	mov    -0x70(%rbp),%rax
    35c5:	48 01 c2             	add    %rax,%rdx
    35c8:	8b 45 e8             	mov    -0x18(%rbp),%eax
    35cb:	89 02                	mov    %eax,(%rdx)
    35cd:	83 45 e4 01          	addl   $0x1,-0x1c(%rbp)
    35d1:	83 45 e8 01          	addl   $0x1,-0x18(%rbp)
    35d5:	8b 45 e8             	mov    -0x18(%rbp),%eax
    35d8:	3b 45 d4             	cmp    -0x2c(%rbp),%eax
    35db:	7e af                	jle    358c <find_to+0x109>
    35dd:	83 7d ec 00          	cmpl   $0x0,-0x14(%rbp)
    35e1:	75 19                	jne    35fc <find_to+0x179>
    35e3:	b9 00 00 00 00       	mov    $0x0,%ecx
    35e8:	ba b2 06 00 00       	mov    $0x6b2,%edx
    35ed:	be 00 00 00 00       	mov    $0x0,%esi
    35f2:	bf 00 00 00 00       	mov    $0x0,%edi
    35f7:	e8 00 00 00 00       	callq  35fc <find_to+0x179>
    35fc:	83 7d ec 01          	cmpl   $0x1,-0x14(%rbp)
    3600:	75 3b                	jne    363d <find_to+0x1ba>
    3602:	8b 45 cc             	mov    -0x34(%rbp),%eax
    3605:	2b 45 d0             	sub    -0x30(%rbp),%eax
    3608:	48 8b 55 a0          	mov    -0x60(%rbp),%rdx
    360c:	8b 72 10             	mov    0x10(%rdx),%esi
    360f:	99                   	cltd   
    3610:	f7 fe                	idiv   %esi
    3612:	83 e8 01             	sub    $0x1,%eax
    3615:	85 c0                	test   %eax,%eax
    3617:	7e 1a                	jle    3633 <find_to+0x1b0>
    3619:	48 8b 45 a0          	mov    -0x60(%rbp),%rax
    361d:	8b 50 10             	mov    0x10(%rax),%edx
    3620:	8b 05 00 00 00 00    	mov    0x0(%rip),%eax        # 3626 <find_to+0x1a3>
    3626:	89 c1                	mov    %eax,%ecx
    3628:	c1 e9 1f             	shr    $0x1f,%ecx
    362b:	01 c8                	add    %ecx,%eax
    362d:	d1 f8                	sar    %eax
    362f:	39 c2                	cmp    %eax,%edx
    3631:	7e 0a                	jle    363d <find_to+0x1ba>
    3633:	b8 00 00 00 00       	mov    $0x0,%eax
    3638:	e9 e3 05 00 00       	jmpq   3c20 <find_to+0x79d>
    363d:	83 7d e0 00          	cmpl   $0x0,-0x20(%rbp)
    3641:	7e 0b                	jle    364e <find_to+0x1cb>
    3643:	8b 05 00 00 00 00    	mov    0x0(%rip),%eax        # 3649 <find_to+0x1c6>
    3649:	39 45 e0             	cmp    %eax,-0x20(%rbp)
    364c:	7e 1e                	jle    366c <find_to+0x1e9>
    364e:	8b 45 e0             	mov    -0x20(%rbp),%eax
    3651:	89 c6                	mov    %eax,%esi
    3653:	bf 00 00 00 00       	mov    $0x0,%edi
    3658:	b8 00 00 00 00       	mov    $0x0,%eax
    365d:	e8 00 00 00 00       	callq  3662 <find_to+0x1df>
    3662:	bf 01 00 00 00       	mov    $0x1,%edi
    3667:	e8 00 00 00 00       	callq  366c <find_to+0x1e9>
    366c:	48 8b 05 00 00 00 00 	mov    0x0(%rip),%rax        # 3673 <find_to+0x1f0>
    3673:	48 39 45 a0          	cmp    %rax,-0x60(%rbp)
    3677:	0f 85 b9 03 00 00    	jne    3a36 <find_to+0x5b3>
    367d:	8b 05 00 00 00 00    	mov    0x0(%rip),%eax        # 3683 <find_to+0x200>
    3683:	39 45 e0             	cmp    %eax,-0x20(%rbp)
    3686:	0f 8c 08 01 00 00    	jl     3794 <find_to+0x311>
    368c:	bf 03 00 00 00       	mov    $0x3,%edi
    3691:	e8 00 00 00 00       	callq  3696 <find_to+0x213>
    3696:	89 45 c8             	mov    %eax,-0x38(%rbp)
    3699:	8b 45 c8             	mov    -0x38(%rbp),%eax
    369c:	83 f8 01             	cmp    $0x1,%eax
    369f:	74 4f                	je     36f0 <find_to+0x26d>
    36a1:	83 f8 01             	cmp    $0x1,%eax
    36a4:	7f 09                	jg     36af <find_to+0x22c>
    36a6:	85 c0                	test   %eax,%eax
    36a8:	74 18                	je     36c2 <find_to+0x23f>
    36aa:	e9 cc 00 00 00       	jmpq   377b <find_to+0x2f8>
    36af:	83 f8 02             	cmp    $0x2,%eax
    36b2:	74 6c                	je     3720 <find_to+0x29d>
    36b4:	83 f8 03             	cmp    $0x3,%eax
    36b7:	0f 84 93 00 00 00    	je     3750 <find_to+0x2cd>
    36bd:	e9 b9 00 00 00       	jmpq   377b <find_to+0x2f8>
    36c2:	8b 05 00 00 00 00    	mov    0x0(%rip),%eax        # 36c8 <find_to+0x245>
    36c8:	83 e8 01             	sub    $0x1,%eax
    36cb:	89 c7                	mov    %eax,%edi
    36cd:	e8 00 00 00 00       	callq  36d2 <find_to+0x24f>
    36d2:	83 c0 01             	add    $0x1,%eax
    36d5:	89 45 c4             	mov    %eax,-0x3c(%rbp)
    36d8:	48 8b 45 88          	mov    -0x78(%rbp),%rax
    36dc:	c7 00 00 00 00 00    	movl   $0x0,(%rax)
    36e2:	48 8b 45 80          	mov    -0x80(%rbp),%rax
    36e6:	8b 55 c4             	mov    -0x3c(%rbp),%edx
    36e9:	89 10                	mov    %edx,(%rax)
    36eb:	e9 9f 00 00 00       	jmpq   378f <find_to+0x30c>
    36f0:	8b 05 00 00 00 00    	mov    0x0(%rip),%eax        # 36f6 <find_to+0x273>
    36f6:	83 e8 01             	sub    $0x1,%eax
    36f9:	89 c7                	mov    %eax,%edi
    36fb:	e8 00 00 00 00       	callq  3700 <find_to+0x27d>
    3700:	83 c0 01             	add    $0x1,%eax
    3703:	89 45 c4             	mov    %eax,-0x3c(%rbp)
    3706:	48 8b 45 88          	mov    -0x78(%rbp),%rax
    370a:	8b 55 c4             	mov    -0x3c(%rbp),%edx
    370d:	89 10                	mov    %edx,(%rax)
    370f:	8b 05 00 00 00 00    	mov    0x0(%rip),%eax        # 3715 <find_to+0x292>
    3715:	8d 50 01             	lea    0x1(%rax),%edx
    3718:	48 8b 45 80          	mov    -0x80(%rbp),%rax
    371c:	89 10                	mov    %edx,(%rax)
    371e:	eb 6f                	jmp    378f <find_to+0x30c>
    3720:	8b 05 00 00 00 00    	mov    0x0(%rip),%eax        # 3726 <find_to+0x2a3>
    3726:	83 e8 01             	sub    $0x1,%eax
    3729:	89 c7                	mov    %eax,%edi
    372b:	e8 00 00 00 00       	callq  3730 <find_to+0x2ad>
    3730:	83 c0 01             	add    $0x1,%eax
    3733:	89 45 c4             	mov    %eax,-0x3c(%rbp)
    3736:	8b 05 00 00 00 00    	mov    0x0(%rip),%eax        # 373c <find_to+0x2b9>
    373c:	8d 50 01             	lea    0x1(%rax),%edx
    373f:	48 8b 45 88          	mov    -0x78(%rbp),%rax
    3743:	89 10                	mov    %edx,(%rax)
    3745:	48 8b 45 80          	mov    -0x80(%rbp),%rax
    3749:	8b 55 c4             	mov    -0x3c(%rbp),%edx
    374c:	89 10                	mov    %edx,(%rax)
    374e:	eb 3f                	jmp    378f <find_to+0x30c>
    3750:	8b 05 00 00 00 00    	mov    0x0(%rip),%eax        # 3756 <find_to+0x2d3>
    3756:	83 e8 01             	sub    $0x1,%eax
    3759:	89 c7                	mov    %eax,%edi
    375b:	e8 00 00 00 00       	callq  3760 <find_to+0x2dd>
    3760:	83 c0 01             	add    $0x1,%eax
    3763:	89 45 c4             	mov    %eax,-0x3c(%rbp)
    3766:	48 8b 45 88          	mov    -0x78(%rbp),%rax
    376a:	8b 55 c4             	mov    -0x3c(%rbp),%edx
    376d:	89 10                	mov    %edx,(%rax)
    376f:	48 8b 45 80          	mov    -0x80(%rbp),%rax
    3773:	c7 00 00 00 00 00    	movl   $0x0,(%rax)
    3779:	eb 14                	jmp    378f <find_to+0x30c>
    377b:	bf 00 00 00 00       	mov    $0x0,%edi
    3780:	e8 00 00 00 00       	callq  3785 <find_to+0x302>
    3785:	bf 01 00 00 00       	mov    $0x1,%edi
    378a:	e8 00 00 00 00       	callq  378f <find_to+0x30c>
    378f:	e9 b8 03 00 00       	jmpq   3b4c <find_to+0x6c9>
    3794:	83 7d ac 00          	cmpl   $0x0,-0x54(%rbp)
    3798:	0f 85 98 00 00 00    	jne    3836 <find_to+0x3b3>
    379e:	8b 45 dc             	mov    -0x24(%rbp),%eax
    37a1:	01 c0                	add    %eax,%eax
    37a3:	89 c7                	mov    %eax,%edi
    37a5:	e8 00 00 00 00       	callq  37aa <find_to+0x327>
    37aa:	89 45 c4             	mov    %eax,-0x3c(%rbp)
    37ad:	8b 45 a8             	mov    -0x58(%rbp),%eax
    37b0:	2b 45 dc             	sub    -0x24(%rbp),%eax
    37b3:	89 c2                	mov    %eax,%edx
    37b5:	8b 45 c4             	mov    -0x3c(%rbp),%eax
    37b8:	01 c2                	add    %eax,%edx
    37ba:	48 8b 45 80          	mov    -0x80(%rbp),%rax
    37be:	89 10                	mov    %edx,(%rax)
    37c0:	48 8b 45 88          	mov    -0x78(%rbp),%rax
    37c4:	8b 55 ac             	mov    -0x54(%rbp),%edx
    37c7:	89 10                	mov    %edx,(%rax)
    37c9:	48 8b 45 80          	mov    -0x80(%rbp),%rax
    37cd:	8b 10                	mov    (%rax),%edx
    37cf:	8b 05 00 00 00 00    	mov    0x0(%rip),%eax        # 37d5 <find_to+0x352>
    37d5:	39 c2                	cmp    %eax,%edx
    37d7:	7e 2a                	jle    3803 <find_to+0x380>
    37d9:	8b 05 00 00 00 00    	mov    0x0(%rip),%eax        # 37df <find_to+0x35c>
    37df:	8d 50 01             	lea    0x1(%rax),%edx
    37e2:	48 8b 45 80          	mov    -0x80(%rbp),%rax
    37e6:	89 10                	mov    %edx,(%rax)
    37e8:	8b 45 e0             	mov    -0x20(%rbp),%eax
    37eb:	83 e8 01             	sub    $0x1,%eax
    37ee:	89 c7                	mov    %eax,%edi
    37f0:	e8 00 00 00 00       	callq  37f5 <find_to+0x372>
    37f5:	8d 50 01             	lea    0x1(%rax),%edx
    37f8:	48 8b 45 88          	mov    -0x78(%rbp),%rax
    37fc:	89 10                	mov    %edx,(%rax)
    37fe:	e9 49 03 00 00       	jmpq   3b4c <find_to+0x6c9>
    3803:	48 8b 45 80          	mov    -0x80(%rbp),%rax
    3807:	8b 00                	mov    (%rax),%eax
    3809:	85 c0                	test   %eax,%eax
    380b:	0f 8f 3b 03 00 00    	jg     3b4c <find_to+0x6c9>
    3811:	48 8b 45 80          	mov    -0x80(%rbp),%rax
    3815:	c7 00 00 00 00 00    	movl   $0x0,(%rax)
    381b:	8b 45 e0             	mov    -0x20(%rbp),%eax
    381e:	83 e8 01             	sub    $0x1,%eax
    3821:	89 c7                	mov    %eax,%edi
    3823:	e8 00 00 00 00       	callq  3828 <find_to+0x3a5>
    3828:	8d 50 01             	lea    0x1(%rax),%edx
    382b:	48 8b 45 88          	mov    -0x78(%rbp),%rax
    382f:	89 10                	mov    %edx,(%rax)
    3831:	e9 16 03 00 00       	jmpq   3b4c <find_to+0x6c9>
    3836:	8b 05 00 00 00 00    	mov    0x0(%rip),%eax        # 383c <find_to+0x3b9>
    383c:	83 c0 01             	add    $0x1,%eax
    383f:	3b 45 ac             	cmp    -0x54(%rbp),%eax
    3842:	0f 85 a6 00 00 00    	jne    38ee <find_to+0x46b>
    3848:	8b 45 dc             	mov    -0x24(%rbp),%eax
    384b:	01 c0                	add    %eax,%eax
    384d:	89 c7                	mov    %eax,%edi
    384f:	e8 00 00 00 00       	callq  3854 <find_to+0x3d1>
    3854:	89 45 c4             	mov    %eax,-0x3c(%rbp)
    3857:	8b 45 a8             	mov    -0x58(%rbp),%eax
    385a:	2b 45 dc             	sub    -0x24(%rbp),%eax
    385d:	89 c2                	mov    %eax,%edx
    385f:	8b 45 c4             	mov    -0x3c(%rbp),%eax
    3862:	01 c2                	add    %eax,%edx
    3864:	48 8b 45 80          	mov    -0x80(%rbp),%rax
    3868:	89 10                	mov    %edx,(%rax)
    386a:	48 8b 45 88          	mov    -0x78(%rbp),%rax
    386e:	8b 55 ac             	mov    -0x54(%rbp),%edx
    3871:	89 10                	mov    %edx,(%rax)
    3873:	48 8b 45 80          	mov    -0x80(%rbp),%rax
    3877:	8b 10                	mov    (%rax),%edx
    3879:	8b 05 00 00 00 00    	mov    0x0(%rip),%eax        # 387f <find_to+0x3fc>
    387f:	39 c2                	cmp    %eax,%edx
    3881:	7e 31                	jle    38b4 <find_to+0x431>
    3883:	8b 05 00 00 00 00    	mov    0x0(%rip),%eax        # 3889 <find_to+0x406>
    3889:	8d 50 01             	lea    0x1(%rax),%edx
    388c:	48 8b 45 80          	mov    -0x80(%rbp),%rax
    3890:	89 10                	mov    %edx,(%rax)
    3892:	8b 1d 00 00 00 00    	mov    0x0(%rip),%ebx        # 3898 <find_to+0x415>
    3898:	8b 45 e0             	mov    -0x20(%rbp),%eax
    389b:	83 e8 01             	sub    $0x1,%eax
    389e:	89 c7                	mov    %eax,%edi
    38a0:	e8 00 00 00 00       	callq  38a5 <find_to+0x422>
    38a5:	29 c3                	sub    %eax,%ebx
    38a7:	89 da                	mov    %ebx,%edx
    38a9:	48 8b 45 88          	mov    -0x78(%rbp),%rax
    38ad:	89 10                	mov    %edx,(%rax)
    38af:	e9 98 02 00 00       	jmpq   3b4c <find_to+0x6c9>
    38b4:	48 8b 45 80          	mov    -0x80(%rbp),%rax
    38b8:	8b 00                	mov    (%rax),%eax
    38ba:	85 c0                	test   %eax,%eax
    38bc:	0f 8f 8a 02 00 00    	jg     3b4c <find_to+0x6c9>
    38c2:	48 8b 45 80          	mov    -0x80(%rbp),%rax
    38c6:	c7 00 00 00 00 00    	movl   $0x0,(%rax)
    38cc:	8b 1d 00 00 00 00    	mov    0x0(%rip),%ebx        # 38d2 <find_to+0x44f>
    38d2:	8b 45 e0             	mov    -0x20(%rbp),%eax
    38d5:	83 e8 01             	sub    $0x1,%eax
    38d8:	89 c7                	mov    %eax,%edi
    38da:	e8 00 00 00 00       	callq  38df <find_to+0x45c>
    38df:	29 c3                	sub    %eax,%ebx
    38e1:	89 da                	mov    %ebx,%edx
    38e3:	48 8b 45 88          	mov    -0x78(%rbp),%rax
    38e7:	89 10                	mov    %edx,(%rax)
    38e9:	e9 5e 02 00 00       	jmpq   3b4c <find_to+0x6c9>
    38ee:	83 7d a8 00          	cmpl   $0x0,-0x58(%rbp)
    38f2:	0f 85 98 00 00 00    	jne    3990 <find_to+0x50d>
    38f8:	8b 45 e0             	mov    -0x20(%rbp),%eax
    38fb:	01 c0                	add    %eax,%eax
    38fd:	89 c7                	mov    %eax,%edi
    38ff:	e8 00 00 00 00       	callq  3904 <find_to+0x481>
    3904:	89 45 c4             	mov    %eax,-0x3c(%rbp)
    3907:	8b 45 ac             	mov    -0x54(%rbp),%eax
    390a:	2b 45 e0             	sub    -0x20(%rbp),%eax
    390d:	89 c2                	mov    %eax,%edx
    390f:	8b 45 c4             	mov    -0x3c(%rbp),%eax
    3912:	01 c2                	add    %eax,%edx
    3914:	48 8b 45 88          	mov    -0x78(%rbp),%rax
    3918:	89 10                	mov    %edx,(%rax)
    391a:	48 8b 45 80          	mov    -0x80(%rbp),%rax
    391e:	8b 55 a8             	mov    -0x58(%rbp),%edx
    3921:	89 10                	mov    %edx,(%rax)
    3923:	48 8b 45 88          	mov    -0x78(%rbp),%rax
    3927:	8b 10                	mov    (%rax),%edx
    3929:	8b 05 00 00 00 00    	mov    0x0(%rip),%eax        # 392f <find_to+0x4ac>
    392f:	39 c2                	cmp    %eax,%edx
    3931:	7e 2a                	jle    395d <find_to+0x4da>
    3933:	8b 05 00 00 00 00    	mov    0x0(%rip),%eax        # 3939 <find_to+0x4b6>
    3939:	8d 50 01             	lea    0x1(%rax),%edx
    393c:	48 8b 45 88          	mov    -0x78(%rbp),%rax
    3940:	89 10                	mov    %edx,(%rax)
    3942:	8b 45 dc             	mov    -0x24(%rbp),%eax
    3945:	83 e8 01             	sub    $0x1,%eax
    3948:	89 c7                	mov    %eax,%edi
    394a:	e8 00 00 00 00       	callq  394f <find_to+0x4cc>
    394f:	8d 50 01             	lea    0x1(%rax),%edx
    3952:	48 8b 45 80          	mov    -0x80(%rbp),%rax
    3956:	89 10                	mov    %edx,(%rax)
    3958:	e9 ef 01 00 00       	jmpq   3b4c <find_to+0x6c9>
    395d:	48 8b 45 88          	mov    -0x78(%rbp),%rax
    3961:	8b 00                	mov    (%rax),%eax
    3963:	85 c0                	test   %eax,%eax
    3965:	0f 8f e1 01 00 00    	jg     3b4c <find_to+0x6c9>
    396b:	48 8b 45 88          	mov    -0x78(%rbp),%rax
    396f:	c7 00 00 00 00 00    	movl   $0x0,(%rax)
    3975:	8b 45 dc             	mov    -0x24(%rbp),%eax
    3978:	83 e8 01             	sub    $0x1,%eax
    397b:	89 c7                	mov    %eax,%edi
    397d:	e8 00 00 00 00       	callq  3982 <find_to+0x4ff>
    3982:	8d 50 01             	lea    0x1(%rax),%edx
    3985:	48 8b 45 80          	mov    -0x80(%rbp),%rax
    3989:	89 10                	mov    %edx,(%rax)
    398b:	e9 bc 01 00 00       	jmpq   3b4c <find_to+0x6c9>
    3990:	8b 45 e0             	mov    -0x20(%rbp),%eax
    3993:	01 c0                	add    %eax,%eax
    3995:	89 c7                	mov    %eax,%edi
    3997:	e8 00 00 00 00       	callq  399c <find_to+0x519>
    399c:	89 45 c4             	mov    %eax,-0x3c(%rbp)
    399f:	8b 45 ac             	mov    -0x54(%rbp),%eax
    39a2:	2b 45 e0             	sub    -0x20(%rbp),%eax
    39a5:	89 c2                	mov    %eax,%edx
    39a7:	8b 45 c4             	mov    -0x3c(%rbp),%eax
    39aa:	01 c2                	add    %eax,%edx
    39ac:	48 8b 45 88          	mov    -0x78(%rbp),%rax
    39b0:	89 10                	mov    %edx,(%rax)
    39b2:	48 8b 45 80          	mov    -0x80(%rbp),%rax
    39b6:	8b 55 a8             	mov    -0x58(%rbp),%edx
    39b9:	89 10                	mov    %edx,(%rax)
    39bb:	48 8b 45 88          	mov    -0x78(%rbp),%rax
    39bf:	8b 10                	mov    (%rax),%edx
    39c1:	8b 05 00 00 00 00    	mov    0x0(%rip),%eax        # 39c7 <find_to+0x544>
    39c7:	39 c2                	cmp    %eax,%edx
    39c9:	7e 31                	jle    39fc <find_to+0x579>
    39cb:	8b 05 00 00 00 00    	mov    0x0(%rip),%eax        # 39d1 <find_to+0x54e>
    39d1:	8d 50 01             	lea    0x1(%rax),%edx
    39d4:	48 8b 45 88          	mov    -0x78(%rbp),%rax
    39d8:	89 10                	mov    %edx,(%rax)
    39da:	8b 1d 00 00 00 00    	mov    0x0(%rip),%ebx        # 39e0 <find_to+0x55d>
    39e0:	8b 45 dc             	mov    -0x24(%rbp),%eax
    39e3:	83 e8 01             	sub    $0x1,%eax
    39e6:	89 c7                	mov    %eax,%edi
    39e8:	e8 00 00 00 00       	callq  39ed <find_to+0x56a>
    39ed:	29 c3                	sub    %eax,%ebx
    39ef:	89 da                	mov    %ebx,%edx
    39f1:	48 8b 45 80          	mov    -0x80(%rbp),%rax
    39f5:	89 10                	mov    %edx,(%rax)
    39f7:	e9 50 01 00 00       	jmpq   3b4c <find_to+0x6c9>
    39fc:	48 8b 45 88          	mov    -0x78(%rbp),%rax
    3a00:	8b 00                	mov    (%rax),%eax
    3a02:	85 c0                	test   %eax,%eax
    3a04:	0f 8f 42 01 00 00    	jg     3b4c <find_to+0x6c9>
    3a0a:	48 8b 45 88          	mov    -0x78(%rbp),%rax
    3a0e:	c7 00 00 00 00 00    	movl   $0x0,(%rax)
    3a14:	8b 1d 00 00 00 00    	mov    0x0(%rip),%ebx        # 3a1a <find_to+0x597>
    3a1a:	8b 45 dc             	mov    -0x24(%rbp),%eax
    3a1d:	83 e8 01             	sub    $0x1,%eax
    3a20:	89 c7                	mov    %eax,%edi
    3a22:	e8 00 00 00 00       	callq  3a27 <find_to+0x5a4>
    3a27:	29 c3                	sub    %eax,%ebx
    3a29:	89 da                	mov    %ebx,%edx
    3a2b:	48 8b 45 80          	mov    -0x80(%rbp),%rax
    3a2f:	89 10                	mov    %edx,(%rax)
    3a31:	e9 16 01 00 00       	jmpq   3b4c <find_to+0x6c9>
    3a36:	8b 45 ec             	mov    -0x14(%rbp),%eax
    3a39:	83 e8 01             	sub    $0x1,%eax
    3a3c:	89 c7                	mov    %eax,%edi
    3a3e:	e8 00 00 00 00       	callq  3a43 <find_to+0x5c0>
    3a43:	89 45 c0             	mov    %eax,-0x40(%rbp)
    3a46:	8b 45 cc             	mov    -0x34(%rbp),%eax
    3a49:	2b 45 d0             	sub    -0x30(%rbp),%eax
    3a4c:	48 8b 55 a0          	mov    -0x60(%rbp),%rdx
    3a50:	8b 72 10             	mov    0x10(%rdx),%esi
    3a53:	99                   	cltd   
    3a54:	f7 fe                	idiv   %esi
    3a56:	83 e8 01             	sub    $0x1,%eax
    3a59:	ba 00 00 00 00       	mov    $0x0,%edx
    3a5e:	85 c0                	test   %eax,%eax
    3a60:	0f 48 c2             	cmovs  %edx,%eax
    3a63:	89 c7                	mov    %eax,%edi
    3a65:	e8 00 00 00 00       	callq  3a6a <find_to+0x5e7>
    3a6a:	89 45 bc             	mov    %eax,-0x44(%rbp)
    3a6d:	8b 45 c0             	mov    -0x40(%rbp),%eax
    3a70:	48 98                	cltq   
    3a72:	48 8d 14 85 00 00 00 	lea    0x0(,%rax,4),%rdx
    3a79:	00 
    3a7a:	48 8b 45 90          	mov    -0x70(%rbp),%rax
    3a7e:	48 01 d0             	add    %rdx,%rax
    3a81:	8b 10                	mov    (%rax),%edx
    3a83:	48 8b 45 88          	mov    -0x78(%rbp),%rax
    3a87:	89 10                	mov    %edx,(%rax)
    3a89:	48 8b 45 a0          	mov    -0x60(%rbp),%rax
    3a8d:	8b 40 10             	mov    0x10(%rax),%eax
    3a90:	0f af 45 bc          	imul   -0x44(%rbp),%eax
    3a94:	89 c2                	mov    %eax,%edx
    3a96:	8b 45 d0             	mov    -0x30(%rbp),%eax
    3a99:	01 c2                	add    %eax,%edx
    3a9b:	48 8b 45 80          	mov    -0x80(%rbp),%rax
    3a9f:	89 10                	mov    %edx,(%rax)
    3aa1:	48 8b 45 80          	mov    -0x80(%rbp),%rax
    3aa5:	8b 08                	mov    (%rax),%ecx
    3aa7:	48 8b 15 00 00 00 00 	mov    0x0(%rip),%rdx        # 3aae <find_to+0x62b>
    3aae:	48 8b 45 88          	mov    -0x78(%rbp),%rax
    3ab2:	8b 00                	mov    (%rax),%eax
    3ab4:	48 98                	cltq   
    3ab6:	48 c1 e0 03          	shl    $0x3,%rax
    3aba:	48 01 d0             	add    %rdx,%rax
    3abd:	48 8b 30             	mov    (%rax),%rsi
    3ac0:	48 8b 45 80          	mov    -0x80(%rbp),%rax
    3ac4:	8b 00                	mov    (%rax),%eax
    3ac6:	48 63 d0             	movslq %eax,%rdx
    3ac9:	48 89 d0             	mov    %rdx,%rax
    3acc:	48 01 c0             	add    %rax,%rax
    3acf:	48 01 d0             	add    %rdx,%rax
    3ad2:	48 c1 e0 03          	shl    $0x3,%rax
    3ad6:	48 01 f0             	add    %rsi,%rax
    3ad9:	8b 40 08             	mov    0x8(%rax),%eax
    3adc:	29 c1                	sub    %eax,%ecx
    3ade:	89 ca                	mov    %ecx,%edx
    3ae0:	48 8b 45 80          	mov    -0x80(%rbp),%rax
    3ae4:	89 10                	mov    %edx,(%rax)
    3ae6:	48 8b 45 88          	mov    -0x78(%rbp),%rax
    3aea:	8b 00                	mov    (%rax),%eax
    3aec:	85 c0                	test   %eax,%eax
    3aee:	7e 10                	jle    3b00 <find_to+0x67d>
    3af0:	48 8b 45 88          	mov    -0x78(%rbp),%rax
    3af4:	8b 10                	mov    (%rax),%edx
    3af6:	8b 05 00 00 00 00    	mov    0x0(%rip),%eax        # 3afc <find_to+0x679>
    3afc:	39 c2                	cmp    %eax,%edx
    3afe:	7e 19                	jle    3b19 <find_to+0x696>
    3b00:	b9 00 00 00 00       	mov    $0x0,%ecx
    3b05:	ba 3a 07 00 00       	mov    $0x73a,%edx
    3b0a:	be 00 00 00 00       	mov    $0x0,%esi
    3b0f:	bf 00 00 00 00       	mov    $0x0,%edi
    3b14:	e8 00 00 00 00       	callq  3b19 <find_to+0x696>
    3b19:	48 8b 45 80          	mov    -0x80(%rbp),%rax
    3b1d:	8b 00                	mov    (%rax),%eax
    3b1f:	85 c0                	test   %eax,%eax
    3b21:	7e 10                	jle    3b33 <find_to+0x6b0>
    3b23:	48 8b 45 80          	mov    -0x80(%rbp),%rax
    3b27:	8b 10                	mov    (%rax),%edx
    3b29:	8b 05 00 00 00 00    	mov    0x0(%rip),%eax        # 3b2f <find_to+0x6ac>
    3b2f:	39 c2                	cmp    %eax,%edx
    3b31:	7e 19                	jle    3b4c <find_to+0x6c9>
    3b33:	b9 00 00 00 00       	mov    $0x0,%ecx
    3b38:	ba 3b 07 00 00       	mov    $0x73b,%edx
    3b3d:	be 00 00 00 00       	mov    $0x0,%esi
    3b42:	bf 00 00 00 00       	mov    $0x0,%edi
    3b47:	e8 00 00 00 00       	callq  3b4c <find_to+0x6c9>
    3b4c:	48 8b 45 88          	mov    -0x78(%rbp),%rax
    3b50:	8b 00                	mov    (%rax),%eax
    3b52:	3b 45 ac             	cmp    -0x54(%rbp),%eax
    3b55:	75 0f                	jne    3b66 <find_to+0x6e3>
    3b57:	48 8b 45 80          	mov    -0x80(%rbp),%rax
    3b5b:	8b 00                	mov    (%rax),%eax
    3b5d:	3b 45 a8             	cmp    -0x58(%rbp),%eax
    3b60:	0f 84 06 fb ff ff    	je     366c <find_to+0x1e9>
    3b66:	48 8b 45 88          	mov    -0x78(%rbp),%rax
    3b6a:	8b 00                	mov    (%rax),%eax
    3b6c:	85 c0                	test   %eax,%eax
    3b6e:	78 30                	js     3ba0 <find_to+0x71d>
    3b70:	48 8b 45 88          	mov    -0x78(%rbp),%rax
    3b74:	8b 00                	mov    (%rax),%eax
    3b76:	8b 15 00 00 00 00    	mov    0x0(%rip),%edx        # 3b7c <find_to+0x6f9>
    3b7c:	83 c2 01             	add    $0x1,%edx
    3b7f:	39 d0                	cmp    %edx,%eax
    3b81:	7f 1d                	jg     3ba0 <find_to+0x71d>
    3b83:	48 8b 45 80          	mov    -0x80(%rbp),%rax
    3b87:	8b 00                	mov    (%rax),%eax
    3b89:	85 c0                	test   %eax,%eax
    3b8b:	78 13                	js     3ba0 <find_to+0x71d>
    3b8d:	48 8b 45 80          	mov    -0x80(%rbp),%rax
    3b91:	8b 00                	mov    (%rax),%eax
    3b93:	8b 15 00 00 00 00    	mov    0x0(%rip),%edx        # 3b99 <find_to+0x716>
    3b99:	83 c2 01             	add    $0x1,%edx
    3b9c:	39 d0                	cmp    %edx,%eax
    3b9e:	7e 27                	jle    3bc7 <find_to+0x744>
    3ba0:	48 8b 45 80          	mov    -0x80(%rbp),%rax
    3ba4:	8b 10                	mov    (%rax),%edx
    3ba6:	48 8b 45 88          	mov    -0x78(%rbp),%rax
    3baa:	8b 00                	mov    (%rax),%eax
    3bac:	89 c6                	mov    %eax,%esi
    3bae:	bf 00 00 00 00       	mov    $0x0,%edi
    3bb3:	b8 00 00 00 00       	mov    $0x0,%eax
    3bb8:	e8 00 00 00 00       	callq  3bbd <find_to+0x73a>
    3bbd:	bf 01 00 00 00       	mov    $0x1,%edi
    3bc2:	e8 00 00 00 00       	callq  3bc7 <find_to+0x744>
    3bc7:	48 8b 15 00 00 00 00 	mov    0x0(%rip),%rdx        # 3bce <find_to+0x74b>
    3bce:	48 8b 45 88          	mov    -0x78(%rbp),%rax
    3bd2:	8b 00                	mov    (%rax),%eax
    3bd4:	48 98                	cltq   
    3bd6:	48 c1 e0 03          	shl    $0x3,%rax
    3bda:	48 01 d0             	add    %rdx,%rax
    3bdd:	48 8b 08             	mov    (%rax),%rcx
    3be0:	48 8b 45 80          	mov    -0x80(%rbp),%rax
    3be4:	8b 00                	mov    (%rax),%eax
    3be6:	48 63 d0             	movslq %eax,%rdx
    3be9:	48 89 d0             	mov    %rdx,%rax
    3bec:	48 01 c0             	add    %rax,%rax
    3bef:	48 01 d0             	add    %rdx,%rax
    3bf2:	48 c1 e0 03          	shl    $0x3,%rax
    3bf6:	48 01 c8             	add    %rcx,%rax
    3bf9:	48 8b 00             	mov    (%rax),%rax
    3bfc:	48 3b 45 a0          	cmp    -0x60(%rbp),%rax
    3c00:	74 19                	je     3c1b <find_to+0x798>
    3c02:	b9 00 00 00 00       	mov    $0x0,%ecx
    3c07:	ba 48 07 00 00       	mov    $0x748,%edx
    3c0c:	be 00 00 00 00       	mov    $0x0,%esi
    3c11:	bf 00 00 00 00       	mov    $0x0,%edi
    3c16:	e8 00 00 00 00       	callq  3c1b <find_to+0x798>
    3c1b:	b8 01 00 00 00       	mov    $0x1,%eax
    3c20:	48 83 c4 78          	add    $0x78,%rsp
    3c24:	5b                   	pop    %rbx
    3c25:	5d                   	pop    %rbp
    3c26:	c3                   	retq   

0000000000003c27 <assess_swap>:
    3c27:	55                   	push   %rbp
    3c28:	48 89 e5             	mov    %rsp,%rbp
    3c2b:	48 83 ec 20          	sub    $0x20,%rsp
    3c2f:	f3 0f 11 45 ec       	movss  %xmm0,-0x14(%rbp)
    3c34:	f3 0f 11 4d e8       	movss  %xmm1,-0x18(%rbp)
    3c39:	66 0f ef c0          	pxor   %xmm0,%xmm0
    3c3d:	0f 2e 45 ec          	ucomiss -0x14(%rbp),%xmm0
    3c41:	72 0c                	jb     3c4f <assess_swap+0x28>
    3c43:	c7 45 fc 01 00 00 00 	movl   $0x1,-0x4(%rbp)
    3c4a:	8b 45 fc             	mov    -0x4(%rbp),%eax
    3c4d:	eb 6c                	jmp    3cbb <assess_swap+0x94>
    3c4f:	66 0f ef c0          	pxor   %xmm0,%xmm0
    3c53:	0f 2e 45 e8          	ucomiss -0x18(%rbp),%xmm0
    3c57:	7a 11                	jp     3c6a <assess_swap+0x43>
    3c59:	66 0f ef c0          	pxor   %xmm0,%xmm0
    3c5d:	0f 2e 45 e8          	ucomiss -0x18(%rbp),%xmm0
    3c61:	75 07                	jne    3c6a <assess_swap+0x43>
    3c63:	b8 00 00 00 00       	mov    $0x0,%eax
    3c68:	eb 51                	jmp    3cbb <assess_swap+0x94>
    3c6a:	e8 00 00 00 00       	callq  3c6f <assess_swap+0x48>
    3c6f:	66 0f 7e c0          	movd   %xmm0,%eax
    3c73:	89 45 f8             	mov    %eax,-0x8(%rbp)
    3c76:	f3 0f 10 4d ec       	movss  -0x14(%rbp),%xmm1
    3c7b:	f3 0f 10 05 00 00 00 	movss  0x0(%rip),%xmm0        # 3c83 <assess_swap+0x5c>
    3c82:	00 
    3c83:	0f 57 c1             	xorps  %xmm1,%xmm0
    3c86:	f3 0f 5e 45 e8       	divss  -0x18(%rbp),%xmm0
    3c8b:	f3 0f 5a c0          	cvtss2sd %xmm0,%xmm0
    3c8f:	e8 00 00 00 00       	callq  3c94 <assess_swap+0x6d>
    3c94:	f2 0f 5a d0          	cvtsd2ss %xmm0,%xmm2
    3c98:	f3 0f 11 55 f4       	movss  %xmm2,-0xc(%rbp)
    3c9d:	f3 0f 10 45 f4       	movss  -0xc(%rbp),%xmm0
    3ca2:	0f 2e 45 f8          	ucomiss -0x8(%rbp),%xmm0
    3ca6:	76 09                	jbe    3cb1 <assess_swap+0x8a>
    3ca8:	c7 45 fc 01 00 00 00 	movl   $0x1,-0x4(%rbp)
    3caf:	eb 07                	jmp    3cb8 <assess_swap+0x91>
    3cb1:	c7 45 fc 00 00 00 00 	movl   $0x0,-0x4(%rbp)
    3cb8:	8b 45 fc             	mov    -0x4(%rbp),%eax
    3cbb:	c9                   	leaveq 
    3cbc:	c3                   	retq   

0000000000003cbd <recompute_bb_cost>:
    3cbd:	55                   	push   %rbp
    3cbe:	48 89 e5             	mov    %rsp,%rbp
    3cc1:	48 83 ec 20          	sub    $0x20,%rsp
    3cc5:	89 7d ec             	mov    %edi,-0x14(%rbp)
    3cc8:	89 75 e8             	mov    %esi,-0x18(%rbp)
    3ccb:	8b 05 00 00 00 00    	mov    0x0(%rip),%eax        # 3cd1 <recompute_bb_cost+0x14>
    3cd1:	89 45 f0             	mov    %eax,-0x10(%rbp)
    3cd4:	83 7d ec 01          	cmpl   $0x1,-0x14(%rbp)
    3cd8:	0f 85 84 00 00 00    	jne    3d62 <recompute_bb_cost+0xa5>
    3cde:	c7 45 fc 00 00 00 00 	movl   $0x0,-0x4(%rbp)
    3ce5:	eb 73                	jmp    3d5a <recompute_bb_cost+0x9d>
    3ce7:	c7 45 f8 00 00 00 00 	movl   $0x0,-0x8(%rbp)
    3cee:	eb 5e                	jmp    3d4e <recompute_bb_cost+0x91>
    3cf0:	48 8b 05 00 00 00 00 	mov    0x0(%rip),%rax        # 3cf7 <recompute_bb_cost+0x3a>
    3cf7:	8b 55 fc             	mov    -0x4(%rbp),%edx
    3cfa:	48 63 d2             	movslq %edx,%rdx
    3cfd:	48 c1 e2 03          	shl    $0x3,%rdx
    3d01:	48 01 d0             	add    %rdx,%rax
    3d04:	48 8b 00             	mov    (%rax),%rax
    3d07:	8b 55 f8             	mov    -0x8(%rbp),%edx
    3d0a:	48 63 d2             	movslq %edx,%rdx
    3d0d:	48 c1 e2 04          	shl    $0x4,%rdx
    3d11:	48 01 c2             	add    %rax,%rdx
    3d14:	8b 05 00 00 00 00    	mov    0x0(%rip),%eax        # 3d1a <recompute_bb_cost+0x5d>
    3d1a:	89 42 08             	mov    %eax,0x8(%rdx)
    3d1d:	48 8b 05 00 00 00 00 	mov    0x0(%rip),%rax        # 3d24 <recompute_bb_cost+0x67>
    3d24:	8b 55 fc             	mov    -0x4(%rbp),%edx
    3d27:	48 63 d2             	movslq %edx,%rdx
    3d2a:	48 c1 e2 03          	shl    $0x3,%rdx
    3d2e:	48 01 d0             	add    %rdx,%rax
    3d31:	48 8b 00             	mov    (%rax),%rax
    3d34:	8b 55 f8             	mov    -0x8(%rbp),%edx
    3d37:	48 63 d2             	movslq %edx,%rdx
    3d3a:	48 c1 e2 04          	shl    $0x4,%rdx
    3d3e:	48 01 c2             	add    %rax,%rdx
    3d41:	8b 05 00 00 00 00    	mov    0x0(%rip),%eax        # 3d47 <recompute_bb_cost+0x8a>
    3d47:	89 42 08             	mov    %eax,0x8(%rdx)
    3d4a:	83 45 f8 01          	addl   $0x1,-0x8(%rbp)
    3d4e:	8b 45 f8             	mov    -0x8(%rbp),%eax
    3d51:	3b 45 e8             	cmp    -0x18(%rbp),%eax
    3d54:	7c 9a                	jl     3cf0 <recompute_bb_cost+0x33>
    3d56:	83 45 fc 01          	addl   $0x1,-0x4(%rbp)
    3d5a:	8b 45 fc             	mov    -0x4(%rbp),%eax
    3d5d:	3b 45 e8             	cmp    -0x18(%rbp),%eax
    3d60:	7c 85                	jl     3ce7 <recompute_bb_cost+0x2a>
    3d62:	c7 45 f4 00 00 00 00 	movl   $0x0,-0xc(%rbp)
    3d69:	e9 82 00 00 00       	jmpq   3df0 <recompute_bb_cost+0x133>
    3d6e:	48 8b 0d 00 00 00 00 	mov    0x0(%rip),%rcx        # 3d75 <recompute_bb_cost+0xb8>
    3d75:	8b 45 f4             	mov    -0xc(%rbp),%eax
    3d78:	48 63 d0             	movslq %eax,%rdx
    3d7b:	48 89 d0             	mov    %rdx,%rax
    3d7e:	48 c1 e0 02          	shl    $0x2,%rax
    3d82:	48 01 d0             	add    %rdx,%rax
    3d85:	48 c1 e0 03          	shl    $0x3,%rax
    3d89:	48 01 c8             	add    %rcx,%rax
    3d8c:	8b 40 20             	mov    0x20(%rax),%eax
    3d8f:	85 c0                	test   %eax,%eax
    3d91:	75 59                	jne    3dec <recompute_bb_cost+0x12f>
    3d93:	83 7d ec 01          	cmpl   $0x1,-0x14(%rbp)
    3d97:	74 2a                	je     3dc3 <recompute_bb_cost+0x106>
    3d99:	48 8b 05 00 00 00 00 	mov    0x0(%rip),%rax        # 3da0 <recompute_bb_cost+0xe3>
    3da0:	8b 55 f4             	mov    -0xc(%rbp),%edx
    3da3:	48 63 d2             	movslq %edx,%rdx
    3da6:	48 c1 e2 02          	shl    $0x2,%rdx
    3daa:	48 01 d0             	add    %rdx,%rax
    3dad:	f3 0f 10 00          	movss  (%rax),%xmm0
    3db1:	f3 0f 10 4d f0       	movss  -0x10(%rbp),%xmm1
    3db6:	f3 0f 58 c8          	addss  %xmm0,%xmm1
    3dba:	66 0f 7e c8          	movd   %xmm1,%eax
    3dbe:	89 45 f0             	mov    %eax,-0x10(%rbp)
    3dc1:	eb 29                	jmp    3dec <recompute_bb_cost+0x12f>
    3dc3:	48 8b 05 00 00 00 00 	mov    0x0(%rip),%rax        # 3dca <recompute_bb_cost+0x10d>
    3dca:	8b 55 f4             	mov    -0xc(%rbp),%edx
    3dcd:	48 63 d2             	movslq %edx,%rdx
    3dd0:	48 c1 e2 04          	shl    $0x4,%rdx
    3dd4:	48 8d 34 10          	lea    (%rax,%rdx,1),%rsi
    3dd8:	8b 55 e8             	mov    -0x18(%rbp),%edx
    3ddb:	8b 45 f4             	mov    -0xc(%rbp),%eax
    3dde:	89 d1                	mov    %edx,%ecx
    3de0:	ba 01 00 00 00       	mov    $0x1,%edx
    3de5:	89 c7                	mov    %eax,%edi
    3de7:	e8 02 19 00 00       	callq  56ee <update_region_occ>
    3dec:	83 45 f4 01          	addl   $0x1,-0xc(%rbp)
    3df0:	8b 05 00 00 00 00    	mov    0x0(%rip),%eax        # 3df6 <recompute_bb_cost+0x139>
    3df6:	39 45 f4             	cmp    %eax,-0xc(%rbp)
    3df9:	0f 8c 6f ff ff ff    	jl     3d6e <recompute_bb_cost+0xb1>
    3dff:	83 7d ec 01          	cmpl   $0x1,-0x14(%rbp)
    3e03:	75 11                	jne    3e16 <recompute_bb_cost+0x159>
    3e05:	8b 45 e8             	mov    -0x18(%rbp),%eax
    3e08:	89 c7                	mov    %eax,%edi
    3e0a:	e8 20 16 00 00       	callq  542f <nonlinear_cong_cost>
    3e0f:	66 0f 7e c0          	movd   %xmm0,%eax
    3e13:	89 45 f0             	mov    %eax,-0x10(%rbp)
    3e16:	8b 45 f0             	mov    -0x10(%rbp),%eax
    3e19:	89 45 e4             	mov    %eax,-0x1c(%rbp)
    3e1c:	f3 0f 10 45 e4       	movss  -0x1c(%rbp),%xmm0
    3e21:	c9                   	leaveq 
    3e22:	c3                   	retq   

0000000000003e23 <comp_td_point_to_point_delay>:
    3e23:	55                   	push   %rbp
    3e24:	48 89 e5             	mov    %rsp,%rbp
    3e27:	48 83 ec 40          	sub    $0x40,%rsp
    3e2b:	89 7d cc             	mov    %edi,-0x34(%rbp)
    3e2e:	89 75 c8             	mov    %esi,-0x38(%rbp)
    3e31:	8b 05 00 00 00 00    	mov    0x0(%rip),%eax        # 3e37 <comp_td_point_to_point_delay+0x14>
    3e37:	89 45 fc             	mov    %eax,-0x4(%rbp)
    3e3a:	48 8b 0d 00 00 00 00 	mov    0x0(%rip),%rcx        # 3e41 <comp_td_point_to_point_delay+0x1e>
    3e41:	8b 45 cc             	mov    -0x34(%rbp),%eax
    3e44:	48 63 d0             	movslq %eax,%rdx
    3e47:	48 89 d0             	mov    %rdx,%rax
    3e4a:	48 c1 e0 02          	shl    $0x2,%rax
    3e4e:	48 01 d0             	add    %rdx,%rax
    3e51:	48 c1 e0 03          	shl    $0x3,%rax
    3e55:	48 01 c8             	add    %rcx,%rax
    3e58:	48 8b 40 10          	mov    0x10(%rax),%rax
    3e5c:	8b 00                	mov    (%rax),%eax
    3e5e:	89 45 f8             	mov    %eax,-0x8(%rbp)
    3e61:	48 8b 0d 00 00 00 00 	mov    0x0(%rip),%rcx        # 3e68 <comp_td_point_to_point_delay+0x45>
    3e68:	8b 45 f8             	mov    -0x8(%rbp),%eax
    3e6b:	48 63 d0             	movslq %eax,%rdx
    3e6e:	48 89 d0             	mov    %rdx,%rax
    3e71:	48 c1 e0 02          	shl    $0x2,%rax
    3e75:	48 01 d0             	add    %rdx,%rax
    3e78:	48 c1 e0 03          	shl    $0x3,%rax
    3e7c:	48 01 c8             	add    %rcx,%rax
    3e7f:	48 8b 40 08          	mov    0x8(%rax),%rax
    3e83:	48 89 45 f0          	mov    %rax,-0x10(%rbp)
    3e87:	48 8b 0d 00 00 00 00 	mov    0x0(%rip),%rcx        # 3e8e <comp_td_point_to_point_delay+0x6b>
    3e8e:	8b 45 cc             	mov    -0x34(%rbp),%eax
    3e91:	48 63 d0             	movslq %eax,%rdx
    3e94:	48 89 d0             	mov    %rdx,%rax
    3e97:	48 c1 e0 02          	shl    $0x2,%rax
    3e9b:	48 01 d0             	add    %rdx,%rax
    3e9e:	48 c1 e0 03          	shl    $0x3,%rax
    3ea2:	48 01 c8             	add    %rcx,%rax
    3ea5:	48 8b 40 10          	mov    0x10(%rax),%rax
    3ea9:	8b 55 c8             	mov    -0x38(%rbp),%edx
    3eac:	48 63 d2             	movslq %edx,%rdx
    3eaf:	48 c1 e2 02          	shl    $0x2,%rdx
    3eb3:	48 01 d0             	add    %rdx,%rax
    3eb6:	8b 00                	mov    (%rax),%eax
    3eb8:	89 45 ec             	mov    %eax,-0x14(%rbp)
    3ebb:	48 8b 0d 00 00 00 00 	mov    0x0(%rip),%rcx        # 3ec2 <comp_td_point_to_point_delay+0x9f>
    3ec2:	8b 45 ec             	mov    -0x14(%rbp),%eax
    3ec5:	48 63 d0             	movslq %eax,%rdx
    3ec8:	48 89 d0             	mov    %rdx,%rax
    3ecb:	48 c1 e0 02          	shl    $0x2,%rax
    3ecf:	48 01 d0             	add    %rdx,%rax
    3ed2:	48 c1 e0 03          	shl    $0x3,%rax
    3ed6:	48 01 c8             	add    %rcx,%rax
    3ed9:	48 8b 40 08          	mov    0x8(%rax),%rax
    3edd:	48 89 45 e0          	mov    %rax,-0x20(%rbp)
    3ee1:	48 83 7d f0 00       	cmpq   $0x0,-0x10(%rbp)
    3ee6:	75 19                	jne    3f01 <comp_td_point_to_point_delay+0xde>
    3ee8:	b9 00 00 00 00       	mov    $0x0,%ecx
    3eed:	ba c0 07 00 00       	mov    $0x7c0,%edx
    3ef2:	be 00 00 00 00       	mov    $0x0,%esi
    3ef7:	bf 00 00 00 00       	mov    $0x0,%edi
    3efc:	e8 00 00 00 00       	callq  3f01 <comp_td_point_to_point_delay+0xde>
    3f01:	48 83 7d e0 00       	cmpq   $0x0,-0x20(%rbp)
    3f06:	75 19                	jne    3f21 <comp_td_point_to_point_delay+0xfe>
    3f08:	b9 00 00 00 00       	mov    $0x0,%ecx
    3f0d:	ba c1 07 00 00       	mov    $0x7c1,%edx
    3f12:	be 00 00 00 00       	mov    $0x0,%esi
    3f17:	bf 00 00 00 00       	mov    $0x0,%edi
    3f1c:	e8 00 00 00 00       	callq  3f21 <comp_td_point_to_point_delay+0xfe>
    3f21:	48 8b 0d 00 00 00 00 	mov    0x0(%rip),%rcx        # 3f28 <comp_td_point_to_point_delay+0x105>
    3f28:	8b 45 ec             	mov    -0x14(%rbp),%eax
    3f2b:	48 63 d0             	movslq %eax,%rdx
    3f2e:	48 89 d0             	mov    %rdx,%rax
    3f31:	48 c1 e0 02          	shl    $0x2,%rax
    3f35:	48 01 d0             	add    %rdx,%rax
    3f38:	48 c1 e0 03          	shl    $0x3,%rax
    3f3c:	48 01 c8             	add    %rcx,%rax
    3f3f:	8b 48 18             	mov    0x18(%rax),%ecx
    3f42:	48 8b 35 00 00 00 00 	mov    0x0(%rip),%rsi        # 3f49 <comp_td_point_to_point_delay+0x126>
    3f49:	8b 45 f8             	mov    -0x8(%rbp),%eax
    3f4c:	48 63 d0             	movslq %eax,%rdx
    3f4f:	48 89 d0             	mov    %rdx,%rax
    3f52:	48 c1 e0 02          	shl    $0x2,%rax
    3f56:	48 01 d0             	add    %rdx,%rax
    3f59:	48 c1 e0 03          	shl    $0x3,%rax
    3f5d:	48 01 f0             	add    %rsi,%rax
    3f60:	8b 40 18             	mov    0x18(%rax),%eax
    3f63:	29 c1                	sub    %eax,%ecx
    3f65:	89 ca                	mov    %ecx,%edx
    3f67:	89 d0                	mov    %edx,%eax
    3f69:	c1 f8 1f             	sar    $0x1f,%eax
    3f6c:	31 c2                	xor    %eax,%edx
    3f6e:	89 55 dc             	mov    %edx,-0x24(%rbp)
    3f71:	29 45 dc             	sub    %eax,-0x24(%rbp)
    3f74:	48 8b 0d 00 00 00 00 	mov    0x0(%rip),%rcx        # 3f7b <comp_td_point_to_point_delay+0x158>
    3f7b:	8b 45 ec             	mov    -0x14(%rbp),%eax
    3f7e:	48 63 d0             	movslq %eax,%rdx
    3f81:	48 89 d0             	mov    %rdx,%rax
    3f84:	48 c1 e0 02          	shl    $0x2,%rax
    3f88:	48 01 d0             	add    %rdx,%rax
    3f8b:	48 c1 e0 03          	shl    $0x3,%rax
    3f8f:	48 01 c8             	add    %rcx,%rax
    3f92:	8b 48 1c             	mov    0x1c(%rax),%ecx
    3f95:	48 8b 35 00 00 00 00 	mov    0x0(%rip),%rsi        # 3f9c <comp_td_point_to_point_delay+0x179>
    3f9c:	8b 45 f8             	mov    -0x8(%rbp),%eax
    3f9f:	48 63 d0             	movslq %eax,%rdx
    3fa2:	48 89 d0             	mov    %rdx,%rax
    3fa5:	48 c1 e0 02          	shl    $0x2,%rax
    3fa9:	48 01 d0             	add    %rdx,%rax
    3fac:	48 c1 e0 03          	shl    $0x3,%rax
    3fb0:	48 01 f0             	add    %rsi,%rax
    3fb3:	8b 40 1c             	mov    0x1c(%rax),%eax
    3fb6:	29 c1                	sub    %eax,%ecx
    3fb8:	89 ca                	mov    %ecx,%edx
    3fba:	89 d0                	mov    %edx,%eax
    3fbc:	c1 f8 1f             	sar    $0x1f,%eax
    3fbf:	31 c2                	xor    %eax,%edx
    3fc1:	89 55 d8             	mov    %edx,-0x28(%rbp)
    3fc4:	29 45 d8             	sub    %eax,-0x28(%rbp)
    3fc7:	48 8b 05 00 00 00 00 	mov    0x0(%rip),%rax        # 3fce <comp_td_point_to_point_delay+0x1ab>
    3fce:	48 39 45 f0          	cmp    %rax,-0x10(%rbp)
    3fd2:	75 66                	jne    403a <comp_td_point_to_point_delay+0x217>
    3fd4:	48 8b 05 00 00 00 00 	mov    0x0(%rip),%rax        # 3fdb <comp_td_point_to_point_delay+0x1b8>
    3fdb:	48 39 45 e0          	cmp    %rax,-0x20(%rbp)
    3fdf:	75 2e                	jne    400f <comp_td_point_to_point_delay+0x1ec>
    3fe1:	48 8b 05 00 00 00 00 	mov    0x0(%rip),%rax        # 3fe8 <comp_td_point_to_point_delay+0x1c5>
    3fe8:	8b 55 dc             	mov    -0x24(%rbp),%edx
    3feb:	48 63 d2             	movslq %edx,%rdx
    3fee:	48 c1 e2 03          	shl    $0x3,%rdx
    3ff2:	48 01 d0             	add    %rdx,%rax
    3ff5:	48 8b 00             	mov    (%rax),%rax
    3ff8:	8b 55 d8             	mov    -0x28(%rbp),%edx
    3ffb:	48 63 d2             	movslq %edx,%rdx
    3ffe:	48 c1 e2 02          	shl    $0x2,%rdx
    4002:	48 01 d0             	add    %rdx,%rax
    4005:	8b 00                	mov    (%rax),%eax
    4007:	89 45 fc             	mov    %eax,-0x4(%rbp)
    400a:	e9 8c 00 00 00       	jmpq   409b <comp_td_point_to_point_delay+0x278>
    400f:	48 8b 05 00 00 00 00 	mov    0x0(%rip),%rax        # 4016 <comp_td_point_to_point_delay+0x1f3>
    4016:	8b 55 dc             	mov    -0x24(%rbp),%edx
    4019:	48 63 d2             	movslq %edx,%rdx
    401c:	48 c1 e2 03          	shl    $0x3,%rdx
    4020:	48 01 d0             	add    %rdx,%rax
    4023:	48 8b 00             	mov    (%rax),%rax
    4026:	8b 55 d8             	mov    -0x28(%rbp),%edx
    4029:	48 63 d2             	movslq %edx,%rdx
    402c:	48 c1 e2 02          	shl    $0x2,%rdx
    4030:	48 01 d0             	add    %rdx,%rax
    4033:	8b 00                	mov    (%rax),%eax
    4035:	89 45 fc             	mov    %eax,-0x4(%rbp)
    4038:	eb 61                	jmp    409b <comp_td_point_to_point_delay+0x278>
    403a:	48 8b 05 00 00 00 00 	mov    0x0(%rip),%rax        # 4041 <comp_td_point_to_point_delay+0x21e>
    4041:	48 39 45 e0          	cmp    %rax,-0x20(%rbp)
    4045:	75 2b                	jne    4072 <comp_td_point_to_point_delay+0x24f>
    4047:	48 8b 05 00 00 00 00 	mov    0x0(%rip),%rax        # 404e <comp_td_point_to_point_delay+0x22b>
    404e:	8b 55 dc             	mov    -0x24(%rbp),%edx
    4051:	48 63 d2             	movslq %edx,%rdx
    4054:	48 c1 e2 03          	shl    $0x3,%rdx
    4058:	48 01 d0             	add    %rdx,%rax
    405b:	48 8b 00             	mov    (%rax),%rax
    405e:	8b 55 d8             	mov    -0x28(%rbp),%edx
    4061:	48 63 d2             	movslq %edx,%rdx
    4064:	48 c1 e2 02          	shl    $0x2,%rdx
    4068:	48 01 d0             	add    %rdx,%rax
    406b:	8b 00                	mov    (%rax),%eax
    406d:	89 45 fc             	mov    %eax,-0x4(%rbp)
    4070:	eb 29                	jmp    409b <comp_td_point_to_point_delay+0x278>
    4072:	48 8b 05 00 00 00 00 	mov    0x0(%rip),%rax        # 4079 <comp_td_point_to_point_delay+0x256>
    4079:	8b 55 dc             	mov    -0x24(%rbp),%edx
    407c:	48 63 d2             	movslq %edx,%rdx
    407f:	48 c1 e2 03          	shl    $0x3,%rdx
    4083:	48 01 d0             	add    %rdx,%rax
    4086:	48 8b 00             	mov    (%rax),%rax
    4089:	8b 55 d8             	mov    -0x28(%rbp),%edx
    408c:	48 63 d2             	movslq %edx,%rdx
    408f:	48 c1 e2 02          	shl    $0x2,%rdx
    4093:	48 01 d0             	add    %rdx,%rax
    4096:	8b 00                	mov    (%rax),%eax
    4098:	89 45 fc             	mov    %eax,-0x4(%rbp)
    409b:	66 0f ef c0          	pxor   %xmm0,%xmm0
    409f:	0f 2e 45 fc          	ucomiss -0x4(%rbp),%xmm0
    40a3:	76 14                	jbe    40b9 <comp_td_point_to_point_delay+0x296>
    40a5:	bf 00 00 00 00       	mov    $0x0,%edi
    40aa:	e8 00 00 00 00       	callq  40af <comp_td_point_to_point_delay+0x28c>
    40af:	bf 01 00 00 00       	mov    $0x1,%edi
    40b4:	e8 00 00 00 00       	callq  40b9 <comp_td_point_to_point_delay+0x296>
    40b9:	66 0f ef c0          	pxor   %xmm0,%xmm0
    40bd:	0f 2e 45 fc          	ucomiss -0x4(%rbp),%xmm0
    40c1:	76 14                	jbe    40d7 <comp_td_point_to_point_delay+0x2b4>
    40c3:	bf 00 00 00 00       	mov    $0x0,%edi
    40c8:	e8 00 00 00 00       	callq  40cd <comp_td_point_to_point_delay+0x2aa>
    40cd:	bf 01 00 00 00       	mov    $0x1,%edi
    40d2:	e8 00 00 00 00       	callq  40d7 <comp_td_point_to_point_delay+0x2b4>
    40d7:	8b 45 fc             	mov    -0x4(%rbp),%eax
    40da:	89 45 c4             	mov    %eax,-0x3c(%rbp)
    40dd:	f3 0f 10 45 c4       	movss  -0x3c(%rbp),%xmm0
    40e2:	c9                   	leaveq 
    40e3:	c3                   	retq   

00000000000040e4 <update_td_cost>:
    40e4:	55                   	push   %rbp
    40e5:	48 89 e5             	mov    %rsp,%rbp
    40e8:	89 7d ec             	mov    %edi,-0x14(%rbp)
    40eb:	89 75 e8             	mov    %esi,-0x18(%rbp)
    40ee:	89 55 e4             	mov    %edx,-0x1c(%rbp)
    40f1:	c7 45 fc 00 00 00 00 	movl   $0x0,-0x4(%rbp)
    40f8:	e9 19 03 00 00       	jmpq   4416 <update_td_cost+0x332>
    40fd:	48 8b 0d 00 00 00 00 	mov    0x0(%rip),%rcx        # 4104 <update_td_cost+0x20>
    4104:	8b 45 ec             	mov    -0x14(%rbp),%eax
    4107:	48 63 d0             	movslq %eax,%rdx
    410a:	48 89 d0             	mov    %rdx,%rax
    410d:	48 c1 e0 02          	shl    $0x2,%rax
    4111:	48 01 d0             	add    %rdx,%rax
    4114:	48 c1 e0 03          	shl    $0x3,%rax
    4118:	48 01 c8             	add    %rcx,%rax
    411b:	48 8b 40 10          	mov    0x10(%rax),%rax
    411f:	8b 55 fc             	mov    -0x4(%rbp),%edx
    4122:	48 63 d2             	movslq %edx,%rdx
    4125:	48 c1 e2 02          	shl    $0x2,%rdx
    4129:	48 01 d0             	add    %rdx,%rax
    412c:	8b 00                	mov    (%rax),%eax
    412e:	89 45 f4             	mov    %eax,-0xc(%rbp)
    4131:	83 7d f4 ff          	cmpl   $0xffffffff,-0xc(%rbp)
    4135:	75 05                	jne    413c <update_td_cost+0x58>
    4137:	e9 d6 02 00 00       	jmpq   4412 <update_td_cost+0x32e>
    413c:	48 8b 0d 00 00 00 00 	mov    0x0(%rip),%rcx        # 4143 <update_td_cost+0x5f>
    4143:	8b 45 f4             	mov    -0xc(%rbp),%eax
    4146:	48 63 d0             	movslq %eax,%rdx
    4149:	48 89 d0             	mov    %rdx,%rax
    414c:	48 c1 e0 02          	shl    $0x2,%rax
    4150:	48 01 d0             	add    %rdx,%rax
    4153:	48 c1 e0 03          	shl    $0x3,%rax
    4157:	48 01 c8             	add    %rcx,%rax
    415a:	8b 40 20             	mov    0x20(%rax),%eax
    415d:	85 c0                	test   %eax,%eax
    415f:	74 05                	je     4166 <update_td_cost+0x82>
    4161:	e9 ac 02 00 00       	jmpq   4412 <update_td_cost+0x32e>
    4166:	48 8b 05 00 00 00 00 	mov    0x0(%rip),%rax        # 416d <update_td_cost+0x89>
    416d:	8b 55 ec             	mov    -0x14(%rbp),%edx
    4170:	48 63 d2             	movslq %edx,%rdx
    4173:	48 c1 e2 03          	shl    $0x3,%rdx
    4177:	48 01 d0             	add    %rdx,%rax
    417a:	48 8b 00             	mov    (%rax),%rax
    417d:	8b 55 fc             	mov    -0x4(%rbp),%edx
    4180:	48 63 d2             	movslq %edx,%rdx
    4183:	48 c1 e2 02          	shl    $0x2,%rdx
    4187:	48 01 d0             	add    %rdx,%rax
    418a:	8b 00                	mov    (%rax),%eax
    418c:	89 45 f0             	mov    %eax,-0x10(%rbp)
    418f:	83 7d f0 00          	cmpl   $0x0,-0x10(%rbp)
    4193:	0f 84 4f 01 00 00    	je     42e8 <update_td_cost+0x204>
    4199:	48 8b 0d 00 00 00 00 	mov    0x0(%rip),%rcx        # 41a0 <update_td_cost+0xbc>
    41a0:	8b 45 f4             	mov    -0xc(%rbp),%eax
    41a3:	48 63 d0             	movslq %eax,%rdx
    41a6:	48 89 d0             	mov    %rdx,%rax
    41a9:	48 c1 e0 02          	shl    $0x2,%rax
    41ad:	48 01 d0             	add    %rdx,%rax
    41b0:	48 c1 e0 03          	shl    $0x3,%rax
    41b4:	48 01 c8             	add    %rcx,%rax
    41b7:	48 8b 40 10          	mov    0x10(%rax),%rax
    41bb:	8b 00                	mov    (%rax),%eax
    41bd:	3b 45 e8             	cmp    -0x18(%rbp),%eax
    41c0:	0f 84 4c 02 00 00    	je     4412 <update_td_cost+0x32e>
    41c6:	48 8b 0d 00 00 00 00 	mov    0x0(%rip),%rcx        # 41cd <update_td_cost+0xe9>
    41cd:	8b 45 f4             	mov    -0xc(%rbp),%eax
    41d0:	48 63 d0             	movslq %eax,%rdx
    41d3:	48 89 d0             	mov    %rdx,%rax
    41d6:	48 c1 e0 02          	shl    $0x2,%rax
    41da:	48 01 d0             	add    %rdx,%rax
    41dd:	48 c1 e0 03          	shl    $0x3,%rax
    41e1:	48 01 c8             	add    %rcx,%rax
    41e4:	48 8b 40 10          	mov    0x10(%rax),%rax
    41e8:	8b 00                	mov    (%rax),%eax
    41ea:	3b 45 ec             	cmp    -0x14(%rbp),%eax
    41ed:	0f 84 1f 02 00 00    	je     4412 <update_td_cost+0x32e>
    41f3:	48 8b 05 00 00 00 00 	mov    0x0(%rip),%rax        # 41fa <update_td_cost+0x116>
    41fa:	8b 55 f4             	mov    -0xc(%rbp),%edx
    41fd:	48 63 d2             	movslq %edx,%rdx
    4200:	48 c1 e2 03          	shl    $0x3,%rdx
    4204:	48 01 d0             	add    %rdx,%rax
    4207:	48 8b 00             	mov    (%rax),%rax
    420a:	8b 55 f0             	mov    -0x10(%rbp),%edx
    420d:	48 63 d2             	movslq %edx,%rdx
    4210:	48 c1 e2 02          	shl    $0x2,%rdx
    4214:	48 01 c2             	add    %rax,%rdx
    4217:	48 8b 05 00 00 00 00 	mov    0x0(%rip),%rax        # 421e <update_td_cost+0x13a>
    421e:	8b 4d f4             	mov    -0xc(%rbp),%ecx
    4221:	48 63 c9             	movslq %ecx,%rcx
    4224:	48 c1 e1 03          	shl    $0x3,%rcx
    4228:	48 01 c8             	add    %rcx,%rax
    422b:	48 8b 00             	mov    (%rax),%rax
    422e:	8b 4d f0             	mov    -0x10(%rbp),%ecx
    4231:	48 63 c9             	movslq %ecx,%rcx
    4234:	48 c1 e1 02          	shl    $0x2,%rcx
    4238:	48 01 c8             	add    %rcx,%rax
    423b:	8b 00                	mov    (%rax),%eax
    423d:	89 02                	mov    %eax,(%rdx)
    423f:	48 8b 05 00 00 00 00 	mov    0x0(%rip),%rax        # 4246 <update_td_cost+0x162>
    4246:	8b 55 f4             	mov    -0xc(%rbp),%edx
    4249:	48 63 d2             	movslq %edx,%rdx
    424c:	48 c1 e2 03          	shl    $0x3,%rdx
    4250:	48 01 d0             	add    %rdx,%rax
    4253:	48 8b 00             	mov    (%rax),%rax
    4256:	8b 55 f0             	mov    -0x10(%rbp),%edx
    4259:	48 63 d2             	movslq %edx,%rdx
    425c:	48 c1 e2 02          	shl    $0x2,%rdx
    4260:	48 01 c2             	add    %rax,%rdx
    4263:	8b 05 00 00 00 00    	mov    0x0(%rip),%eax        # 4269 <update_td_cost+0x185>
    4269:	89 02                	mov    %eax,(%rdx)
    426b:	48 8b 05 00 00 00 00 	mov    0x0(%rip),%rax        # 4272 <update_td_cost+0x18e>
    4272:	8b 55 f4             	mov    -0xc(%rbp),%edx
    4275:	48 63 d2             	movslq %edx,%rdx
    4278:	48 c1 e2 03          	shl    $0x3,%rdx
    427c:	48 01 d0             	add    %rdx,%rax
    427f:	48 8b 00             	mov    (%rax),%rax
    4282:	8b 55 f0             	mov    -0x10(%rbp),%edx
    4285:	48 63 d2             	movslq %edx,%rdx
    4288:	48 c1 e2 02          	shl    $0x2,%rdx
    428c:	48 01 c2             	add    %rax,%rdx
    428f:	48 8b 05 00 00 00 00 	mov    0x0(%rip),%rax        # 4296 <update_td_cost+0x1b2>
    4296:	8b 4d f4             	mov    -0xc(%rbp),%ecx
    4299:	48 63 c9             	movslq %ecx,%rcx
    429c:	48 c1 e1 03          	shl    $0x3,%rcx
    42a0:	48 01 c8             	add    %rcx,%rax
    42a3:	48 8b 00             	mov    (%rax),%rax
    42a6:	8b 4d f0             	mov    -0x10(%rbp),%ecx
    42a9:	48 63 c9             	movslq %ecx,%rcx
    42ac:	48 c1 e1 02          	shl    $0x2,%rcx
    42b0:	48 01 c8             	add    %rcx,%rax
    42b3:	8b 00                	mov    (%rax),%eax
    42b5:	89 02                	mov    %eax,(%rdx)
    42b7:	48 8b 05 00 00 00 00 	mov    0x0(%rip),%rax        # 42be <update_td_cost+0x1da>
    42be:	8b 55 f4             	mov    -0xc(%rbp),%edx
    42c1:	48 63 d2             	movslq %edx,%rdx
    42c4:	48 c1 e2 03          	shl    $0x3,%rdx
    42c8:	48 01 d0             	add    %rdx,%rax
    42cb:	48 8b 00             	mov    (%rax),%rax
    42ce:	8b 55 f0             	mov    -0x10(%rbp),%edx
    42d1:	48 63 d2             	movslq %edx,%rdx
    42d4:	48 c1 e2 02          	shl    $0x2,%rdx
    42d8:	48 01 c2             	add    %rax,%rdx
    42db:	8b 05 00 00 00 00    	mov    0x0(%rip),%eax        # 42e1 <update_td_cost+0x1fd>
    42e1:	89 02                	mov    %eax,(%rdx)
    42e3:	e9 2a 01 00 00       	jmpq   4412 <update_td_cost+0x32e>
    42e8:	c7 45 f8 01 00 00 00 	movl   $0x1,-0x8(%rbp)
    42ef:	e9 f4 00 00 00       	jmpq   43e8 <update_td_cost+0x304>
    42f4:	48 8b 05 00 00 00 00 	mov    0x0(%rip),%rax        # 42fb <update_td_cost+0x217>
    42fb:	8b 55 f4             	mov    -0xc(%rbp),%edx
    42fe:	48 63 d2             	movslq %edx,%rdx
    4301:	48 c1 e2 03          	shl    $0x3,%rdx
    4305:	48 01 d0             	add    %rdx,%rax
    4308:	48 8b 00             	mov    (%rax),%rax
    430b:	8b 55 f8             	mov    -0x8(%rbp),%edx
    430e:	48 63 d2             	movslq %edx,%rdx
    4311:	48 c1 e2 02          	shl    $0x2,%rdx
    4315:	48 01 c2             	add    %rax,%rdx
    4318:	48 8b 05 00 00 00 00 	mov    0x0(%rip),%rax        # 431f <update_td_cost+0x23b>
    431f:	8b 4d f4             	mov    -0xc(%rbp),%ecx
    4322:	48 63 c9             	movslq %ecx,%rcx
    4325:	48 c1 e1 03          	shl    $0x3,%rcx
    4329:	48 01 c8             	add    %rcx,%rax
    432c:	48 8b 00             	mov    (%rax),%rax
    432f:	8b 4d f8             	mov    -0x8(%rbp),%ecx
    4332:	48 63 c9             	movslq %ecx,%rcx
    4335:	48 c1 e1 02          	shl    $0x2,%rcx
    4339:	48 01 c8             	add    %rcx,%rax
    433c:	8b 00                	mov    (%rax),%eax
    433e:	89 02                	mov    %eax,(%rdx)
    4340:	48 8b 05 00 00 00 00 	mov    0x0(%rip),%rax        # 4347 <update_td_cost+0x263>
    4347:	8b 55 f4             	mov    -0xc(%rbp),%edx
    434a:	48 63 d2             	movslq %edx,%rdx
    434d:	48 c1 e2 03          	shl    $0x3,%rdx
    4351:	48 01 d0             	add    %rdx,%rax
    4354:	48 8b 00             	mov    (%rax),%rax
    4357:	8b 55 f8             	mov    -0x8(%rbp),%edx
    435a:	48 63 d2             	movslq %edx,%rdx
    435d:	48 c1 e2 02          	shl    $0x2,%rdx
    4361:	48 01 c2             	add    %rax,%rdx
    4364:	8b 05 00 00 00 00    	mov    0x0(%rip),%eax        # 436a <update_td_cost+0x286>
    436a:	89 02                	mov    %eax,(%rdx)
    436c:	48 8b 05 00 00 00 00 	mov    0x0(%rip),%rax        # 4373 <update_td_cost+0x28f>
    4373:	8b 55 f4             	mov    -0xc(%rbp),%edx
    4376:	48 63 d2             	movslq %edx,%rdx
    4379:	48 c1 e2 03          	shl    $0x3,%rdx
    437d:	48 01 d0             	add    %rdx,%rax
    4380:	48 8b 00             	mov    (%rax),%rax
    4383:	8b 55 f8             	mov    -0x8(%rbp),%edx
    4386:	48 63 d2             	movslq %edx,%rdx
    4389:	48 c1 e2 02          	shl    $0x2,%rdx
    438d:	48 01 c2             	add    %rax,%rdx
    4390:	48 8b 05 00 00 00 00 	mov    0x0(%rip),%rax        # 4397 <update_td_cost+0x2b3>
    4397:	8b 4d f4             	mov    -0xc(%rbp),%ecx
    439a:	48 63 c9             	movslq %ecx,%rcx
    439d:	48 c1 e1 03          	shl    $0x3,%rcx
    43a1:	48 01 c8             	add    %rcx,%rax
    43a4:	48 8b 00             	mov    (%rax),%rax
    43a7:	8b 4d f8             	mov    -0x8(%rbp),%ecx
    43aa:	48 63 c9             	movslq %ecx,%rcx
    43ad:	48 c1 e1 02          	shl    $0x2,%rcx
    43b1:	48 01 c8             	add    %rcx,%rax
    43b4:	8b 00                	mov    (%rax),%eax
    43b6:	89 02                	mov    %eax,(%rdx)
    43b8:	48 8b 05 00 00 00 00 	mov    0x0(%rip),%rax        # 43bf <update_td_cost+0x2db>
    43bf:	8b 55 f4             	mov    -0xc(%rbp),%edx
    43c2:	48 63 d2             	movslq %edx,%rdx
    43c5:	48 c1 e2 03          	shl    $0x3,%rdx
    43c9:	48 01 d0             	add    %rdx,%rax
    43cc:	48 8b 00             	mov    (%rax),%rax
    43cf:	8b 55 f8             	mov    -0x8(%rbp),%edx
    43d2:	48 63 d2             	movslq %edx,%rdx
    43d5:	48 c1 e2 02          	shl    $0x2,%rdx
    43d9:	48 01 c2             	add    %rax,%rdx
    43dc:	8b 05 00 00 00 00    	mov    0x0(%rip),%eax        # 43e2 <update_td_cost+0x2fe>
    43e2:	89 02                	mov    %eax,(%rdx)
    43e4:	83 45 f8 01          	addl   $0x1,-0x8(%rbp)
    43e8:	48 8b 0d 00 00 00 00 	mov    0x0(%rip),%rcx        # 43ef <update_td_cost+0x30b>
    43ef:	8b 45 f4             	mov    -0xc(%rbp),%eax
    43f2:	48 63 d0             	movslq %eax,%rdx
    43f5:	48 89 d0             	mov    %rdx,%rax
    43f8:	48 c1 e0 02          	shl    $0x2,%rax
    43fc:	48 01 d0             	add    %rdx,%rax
    43ff:	48 c1 e0 03          	shl    $0x3,%rax
    4403:	48 01 c8             	add    %rcx,%rax
    4406:	8b 40 08             	mov    0x8(%rax),%eax
    4409:	3b 45 f8             	cmp    -0x8(%rbp),%eax
    440c:	0f 8d e2 fe ff ff    	jge    42f4 <update_td_cost+0x210>
    4412:	83 45 fc 01          	addl   $0x1,-0x4(%rbp)
    4416:	8b 45 fc             	mov    -0x4(%rbp),%eax
    4419:	3b 45 e4             	cmp    -0x1c(%rbp),%eax
    441c:	0f 8c db fc ff ff    	jl     40fd <update_td_cost+0x19>
    4422:	83 7d e8 ff          	cmpl   $0xffffffff,-0x18(%rbp)
    4426:	0f 84 31 03 00 00    	je     475d <update_td_cost+0x679>
    442c:	c7 45 fc 00 00 00 00 	movl   $0x0,-0x4(%rbp)
    4433:	e9 19 03 00 00       	jmpq   4751 <update_td_cost+0x66d>
    4438:	48 8b 0d 00 00 00 00 	mov    0x0(%rip),%rcx        # 443f <update_td_cost+0x35b>
    443f:	8b 45 e8             	mov    -0x18(%rbp),%eax
    4442:	48 63 d0             	movslq %eax,%rdx
    4445:	48 89 d0             	mov    %rdx,%rax
    4448:	48 c1 e0 02          	shl    $0x2,%rax
    444c:	48 01 d0             	add    %rdx,%rax
    444f:	48 c1 e0 03          	shl    $0x3,%rax
    4453:	48 01 c8             	add    %rcx,%rax
    4456:	48 8b 40 10          	mov    0x10(%rax),%rax
    445a:	8b 55 fc             	mov    -0x4(%rbp),%edx
    445d:	48 63 d2             	movslq %edx,%rdx
    4460:	48 c1 e2 02          	shl    $0x2,%rdx
    4464:	48 01 d0             	add    %rdx,%rax
    4467:	8b 00                	mov    (%rax),%eax
    4469:	89 45 f4             	mov    %eax,-0xc(%rbp)
    446c:	83 7d f4 ff          	cmpl   $0xffffffff,-0xc(%rbp)
    4470:	75 05                	jne    4477 <update_td_cost+0x393>
    4472:	e9 d6 02 00 00       	jmpq   474d <update_td_cost+0x669>
    4477:	48 8b 0d 00 00 00 00 	mov    0x0(%rip),%rcx        # 447e <update_td_cost+0x39a>
    447e:	8b 45 f4             	mov    -0xc(%rbp),%eax
    4481:	48 63 d0             	movslq %eax,%rdx
    4484:	48 89 d0             	mov    %rdx,%rax
    4487:	48 c1 e0 02          	shl    $0x2,%rax
    448b:	48 01 d0             	add    %rdx,%rax
    448e:	48 c1 e0 03          	shl    $0x3,%rax
    4492:	48 01 c8             	add    %rcx,%rax
    4495:	8b 40 20             	mov    0x20(%rax),%eax
    4498:	85 c0                	test   %eax,%eax
    449a:	74 05                	je     44a1 <update_td_cost+0x3bd>
    449c:	e9 ac 02 00 00       	jmpq   474d <update_td_cost+0x669>
    44a1:	48 8b 05 00 00 00 00 	mov    0x0(%rip),%rax        # 44a8 <update_td_cost+0x3c4>
    44a8:	8b 55 e8             	mov    -0x18(%rbp),%edx
    44ab:	48 63 d2             	movslq %edx,%rdx
    44ae:	48 c1 e2 03          	shl    $0x3,%rdx
    44b2:	48 01 d0             	add    %rdx,%rax
    44b5:	48 8b 00             	mov    (%rax),%rax
    44b8:	8b 55 fc             	mov    -0x4(%rbp),%edx
    44bb:	48 63 d2             	movslq %edx,%rdx
    44be:	48 c1 e2 02          	shl    $0x2,%rdx
    44c2:	48 01 d0             	add    %rdx,%rax
    44c5:	8b 00                	mov    (%rax),%eax
    44c7:	89 45 f0             	mov    %eax,-0x10(%rbp)
    44ca:	83 7d f0 00          	cmpl   $0x0,-0x10(%rbp)
    44ce:	0f 84 4f 01 00 00    	je     4623 <update_td_cost+0x53f>
    44d4:	48 8b 0d 00 00 00 00 	mov    0x0(%rip),%rcx        # 44db <update_td_cost+0x3f7>
    44db:	8b 45 f4             	mov    -0xc(%rbp),%eax
    44de:	48 63 d0             	movslq %eax,%rdx
    44e1:	48 89 d0             	mov    %rdx,%rax
    44e4:	48 c1 e0 02          	shl    $0x2,%rax
    44e8:	48 01 d0             	add    %rdx,%rax
    44eb:	48 c1 e0 03          	shl    $0x3,%rax
    44ef:	48 01 c8             	add    %rcx,%rax
    44f2:	48 8b 40 10          	mov    0x10(%rax),%rax
    44f6:	8b 00                	mov    (%rax),%eax
    44f8:	3b 45 e8             	cmp    -0x18(%rbp),%eax
    44fb:	0f 84 4c 02 00 00    	je     474d <update_td_cost+0x669>
    4501:	48 8b 0d 00 00 00 00 	mov    0x0(%rip),%rcx        # 4508 <update_td_cost+0x424>
    4508:	8b 45 f4             	mov    -0xc(%rbp),%eax
    450b:	48 63 d0             	movslq %eax,%rdx
    450e:	48 89 d0             	mov    %rdx,%rax
    4511:	48 c1 e0 02          	shl    $0x2,%rax
    4515:	48 01 d0             	add    %rdx,%rax
    4518:	48 c1 e0 03          	shl    $0x3,%rax
    451c:	48 01 c8             	add    %rcx,%rax
    451f:	48 8b 40 10          	mov    0x10(%rax),%rax
    4523:	8b 00                	mov    (%rax),%eax
    4525:	3b 45 ec             	cmp    -0x14(%rbp),%eax
    4528:	0f 84 1f 02 00 00    	je     474d <update_td_cost+0x669>
    452e:	48 8b 05 00 00 00 00 	mov    0x0(%rip),%rax        # 4535 <update_td_cost+0x451>
    4535:	8b 55 f4             	mov    -0xc(%rbp),%edx
    4538:	48 63 d2             	movslq %edx,%rdx
    453b:	48 c1 e2 03          	shl    $0x3,%rdx
    453f:	48 01 d0             	add    %rdx,%rax
    4542:	48 8b 00             	mov    (%rax),%rax
    4545:	8b 55 f0             	mov    -0x10(%rbp),%edx
    4548:	48 63 d2             	movslq %edx,%rdx
    454b:	48 c1 e2 02          	shl    $0x2,%rdx
    454f:	48 01 c2             	add    %rax,%rdx
    4552:	48 8b 05 00 00 00 00 	mov    0x0(%rip),%rax        # 4559 <update_td_cost+0x475>
    4559:	8b 4d f4             	mov    -0xc(%rbp),%ecx
    455c:	48 63 c9             	movslq %ecx,%rcx
    455f:	48 c1 e1 03          	shl    $0x3,%rcx
    4563:	48 01 c8             	add    %rcx,%rax
    4566:	48 8b 00             	mov    (%rax),%rax
    4569:	8b 4d f0             	mov    -0x10(%rbp),%ecx
    456c:	48 63 c9             	movslq %ecx,%rcx
    456f:	48 c1 e1 02          	shl    $0x2,%rcx
    4573:	48 01 c8             	add    %rcx,%rax
    4576:	8b 00                	mov    (%rax),%eax
    4578:	89 02                	mov    %eax,(%rdx)
    457a:	48 8b 05 00 00 00 00 	mov    0x0(%rip),%rax        # 4581 <update_td_cost+0x49d>
    4581:	8b 55 f4             	mov    -0xc(%rbp),%edx
    4584:	48 63 d2             	movslq %edx,%rdx
    4587:	48 c1 e2 03          	shl    $0x3,%rdx
    458b:	48 01 d0             	add    %rdx,%rax
    458e:	48 8b 00             	mov    (%rax),%rax
    4591:	8b 55 f0             	mov    -0x10(%rbp),%edx
    4594:	48 63 d2             	movslq %edx,%rdx
    4597:	48 c1 e2 02          	shl    $0x2,%rdx
    459b:	48 01 c2             	add    %rax,%rdx
    459e:	8b 05 00 00 00 00    	mov    0x0(%rip),%eax        # 45a4 <update_td_cost+0x4c0>
    45a4:	89 02                	mov    %eax,(%rdx)
    45a6:	48 8b 05 00 00 00 00 	mov    0x0(%rip),%rax        # 45ad <update_td_cost+0x4c9>
    45ad:	8b 55 f4             	mov    -0xc(%rbp),%edx
    45b0:	48 63 d2             	movslq %edx,%rdx
    45b3:	48 c1 e2 03          	shl    $0x3,%rdx
    45b7:	48 01 d0             	add    %rdx,%rax
    45ba:	48 8b 00             	mov    (%rax),%rax
    45bd:	8b 55 f0             	mov    -0x10(%rbp),%edx
    45c0:	48 63 d2             	movslq %edx,%rdx
    45c3:	48 c1 e2 02          	shl    $0x2,%rdx
    45c7:	48 01 c2             	add    %rax,%rdx
    45ca:	48 8b 05 00 00 00 00 	mov    0x0(%rip),%rax        # 45d1 <update_td_cost+0x4ed>
    45d1:	8b 4d f4             	mov    -0xc(%rbp),%ecx
    45d4:	48 63 c9             	movslq %ecx,%rcx
    45d7:	48 c1 e1 03          	shl    $0x3,%rcx
    45db:	48 01 c8             	add    %rcx,%rax
    45de:	48 8b 00             	mov    (%rax),%rax
    45e1:	8b 4d f0             	mov    -0x10(%rbp),%ecx
    45e4:	48 63 c9             	movslq %ecx,%rcx
    45e7:	48 c1 e1 02          	shl    $0x2,%rcx
    45eb:	48 01 c8             	add    %rcx,%rax
    45ee:	8b 00                	mov    (%rax),%eax
    45f0:	89 02                	mov    %eax,(%rdx)
    45f2:	48 8b 05 00 00 00 00 	mov    0x0(%rip),%rax        # 45f9 <update_td_cost+0x515>
    45f9:	8b 55 f4             	mov    -0xc(%rbp),%edx
    45fc:	48 63 d2             	movslq %edx,%rdx
    45ff:	48 c1 e2 03          	shl    $0x3,%rdx
    4603:	48 01 d0             	add    %rdx,%rax
    4606:	48 8b 00             	mov    (%rax),%rax
    4609:	8b 55 f0             	mov    -0x10(%rbp),%edx
    460c:	48 63 d2             	movslq %edx,%rdx
    460f:	48 c1 e2 02          	shl    $0x2,%rdx
    4613:	48 01 c2             	add    %rax,%rdx
    4616:	8b 05 00 00 00 00    	mov    0x0(%rip),%eax        # 461c <update_td_cost+0x538>
    461c:	89 02                	mov    %eax,(%rdx)
    461e:	e9 2a 01 00 00       	jmpq   474d <update_td_cost+0x669>
    4623:	c7 45 f8 01 00 00 00 	movl   $0x1,-0x8(%rbp)
    462a:	e9 f4 00 00 00       	jmpq   4723 <update_td_cost+0x63f>
    462f:	48 8b 05 00 00 00 00 	mov    0x0(%rip),%rax        # 4636 <update_td_cost+0x552>
    4636:	8b 55 f4             	mov    -0xc(%rbp),%edx
    4639:	48 63 d2             	movslq %edx,%rdx
    463c:	48 c1 e2 03          	shl    $0x3,%rdx
    4640:	48 01 d0             	add    %rdx,%rax
    4643:	48 8b 00             	mov    (%rax),%rax
    4646:	8b 55 f8             	mov    -0x8(%rbp),%edx
    4649:	48 63 d2             	movslq %edx,%rdx
    464c:	48 c1 e2 02          	shl    $0x2,%rdx
